(dp0
S'successes'
p1
(lp2
I0
aI0
aI0
aI0
aI0
aI0
aI0
aI0
aI0
aI0
aI0
aI0
aI0
aI0
aI0
aI0
aI0
aI0
aI0
aI0
aI0
aI0
aI0
aI0
aI0
aI0
aI1
aI0
aI0
aI0
aI0
aI0
aI0
aI0
aI0
aI0
aI0
aI0
aI0
aI0
aI0
aI0
aI0
aI0
aI0
aI0
aI0
aI0
aI0
aI0
aI0
aI0
aI0
aI0
aI0
aI0
aI0
aI0
aI0
aI0
aI0
aI0
aI0
aI0
aI0
aI0
aI0
aI0
aI0
aI0
aI0
aI0
aI0
aI0
aI0
aI0
aI0
aI0
aI0
aI0
aI0
aI0
aI0
aI0
aI1
aI0
aI0
aI0
aI0
aI0
aI0
aI0
aI0
aI0
aI0
aI1
aI0
aI0
aI0
aI0
aI0
aI0
aI0
aI0
aI0
aI0
aI0
aI0
aI0
aI1
aI0
aI0
aI0
aI0
aI0
aI0
aI0
aI0
aI0
aI0
aI0
aI0
aI0
aI0
aI0
aI0
aI0
aI0
aI0
aI0
aI0
aI0
aI0
aI0
aI0
aI1
aI0
aI0
aI0
aI0
aI0
aI0
aI0
aI0
aI0
aI0
aI0
aI0
aI0
aI0
aI0
aI0
aI0
aI0
aI0
aI0
aI0
aI0
aI0
aI0
aI0
aI0
aI0
aI0
aI0
aI0
aI0
aI0
aI0
aI0
aI0
aI0
aI0
aI0
aI0
aI0
aI0
aI0
aI0
aI0
aI0
aI0
aI0
aI0
aI0
aI0
aI0
aI0
aI1
aI0
aI0
aI0
aI0
aI0
aI0
aI0
aI0
aI0
aI0
aI0
aI0
aI0
aI0
aI0
aI0
aI0
aI1
aI0
aI0
aI0
aI0
aI0
aI0
aI0
aI0
aI0
aI0
aI0
aI0
aI0
aI0
aI0
aI0
aI0
aI0
aI0
aI0
aI0
aI0
aI0
aI0
aI0
aI0
aI0
aI1
aI0
aI0
aI0
aI0
aI0
aI0
aI0
aI0
aI0
aI0
aI0
aI0
aI0
aI0
aI0
aI1
aI0
aI0
aI0
aI0
aI0
aI0
aI0
aI0
aI0
aI0
aI0
aI0
aI0
aI0
aI0
aI1
aI0
aI0
aI0
aI0
aI0
aI0
aI0
aI0
aI0
aI0
aI0
aI0
aI0
aI0
aI0
aI0
aI0
aI1
aI0
aI0
aI0
aI0
aI0
aI0
aI0
aI0
aI0
aI1
aI0
aI0
aI0
aI0
aI0
aI0
aI0
aI0
aI0
aI0
aI0
aI0
aI0
aI0
aI0
aI0
aI0
aI0
aI0
aI0
aI1
aI0
aI0
aI0
aI0
aI0
aI0
aI0
aI0
aI0
aI0
aI1
aI0
aI0
aI0
aI0
aI0
aI0
aI1
aI0
aI0
aI0
aI0
aI0
aI0
aI0
aI0
aI0
aI0
aI0
aI0
aI0
aI0
aI0
aI0
aI0
aI0
aI0
aI0
aI0
aI0
aI0
aI0
aI0
aI1
aI0
aI0
aI0
aI0
aI0
aI0
aI0
aI0
aI0
aI0
aI0
aI0
aI0
aI0
aI0
aI1
aI0
aI0
aI0
aI0
aI0
aI0
aI0
aI0
aI0
aI0
aI1
aI0
aI0
aI0
aI0
aI0
aI0
aI0
aI0
aI0
aI0
aI0
aI0
aI0
aI0
aI0
aI1
aI0
aI0
aI0
aI0
aI0
aI0
aI0
aI0
aI0
aI1
aI0
aI0
aI0
aI0
aI0
aI0
aI0
aI0
aI0
aI0
aI0
aI0
aI0
aI0
aI0
aI1
aI0
aI0
aI0
aI0
aI0
aI0
aI1
aI0
aI0
aI0
aI0
aI0
aI0
aI0
aI1
aI0
aI0
aI0
aI0
aI0
aI0
aI0
aI0
aI0
aI0
aI0
aI0
aI0
aI0
aI0
aI0
aI1
aI0
aI0
aI0
aI0
aI0
aI0
aI0
aI0
aI0
aI0
aI0
aI0
aI0
aI0
aI0
aI0
aI0
aI0
aI0
aI0
aI0
aI0
aI0
aI0
aI0
aI0
aI0
aI0
aI0
aI0
aI0
aI0
aI0
aI0
aI0
aI0
aI0
aI0
aI0
aI0
aI0
aI0
aI0
aI0
aI0
aI0
aI0
aI0
aI0
aI0
aI0
aI1
aI0
aI0
aI0
aI0
aI0
aI0
aI0
aI0
aI0
aI0
aI1
aI0
aI0
aI0
aI0
aI0
aI0
aI0
aI0
aI0
aI1
aI0
aI0
aI0
aI0
aI0
aI0
aI0
aI0
aI0
aI0
aI1
aI0
aI0
aI0
aI0
aI0
aI0
aI0
aI0
aI0
aI0
aI1
aI0
aI0
aI0
aI0
aI0
aI0
aI0
aI0
aI0
aI0
aI0
aI0
aI0
aI1
aI0
aI0
aI0
aI0
aI0
aI0
aI0
aI0
aI0
aI0
aI0
aI0
aI0
aI0
aI1
aI0
aI0
aI0
aI0
aI0
aI0
aI0
aI0
aI0
aI1
aI0
aI0
aI0
aI0
aI0
aI0
aI1
aI0
aI0
aI0
aI0
aI0
aI0
aI0
aI0
aI0
aI0
aI0
aI0
aI1
aI0
aI0
aI0
aI0
aI0
aI0
aI0
aI0
aI0
aI0
aI0
aI0
aI0
aI0
aI0
aI0
aI0
aI0
aI0
aI0
aI0
aI1
aI0
aI0
aI0
aI0
aI1
aI0
aI0
aI0
aI0
aI0
aI0
aI0
aI1
aI0
aI0
aI0
aI0
aI0
aI0
aI0
aI0
aI0
aI0
aI1
aI0
aI0
aI0
aI0
aI0
aI0
aI0
aI0
aI0
aI0
aI0
aI0
aI0
aI0
aI0
aI0
aI0
aI0
aI0
aI0
aI1
aI0
aI0
aI0
aI0
aI0
aI0
aI0
aI0
aI0
aI0
aI0
aI0
aI0
aI0
aI0
aI1
aI0
aI0
aI0
aI0
aI0
aI0
aI0
aI0
aI0
aI1
aI0
aI0
aI0
aI0
aI0
aI0
aI0
aI0
aI0
aI0
aI1
aI0
aI0
aI0
aI0
aI0
aI1
aI0
aI0
aI0
aI0
aI0
aI0
aI0
aI0
aI1
aI0
aI0
aI0
aI0
aI0
aI0
aI0
aI0
aI0
aI0
aI1
aI0
aI0
aI0
aI0
aI0
aI0
aI0
aI0
aI0
aI0
aI1
aI0
aI0
aI0
aI0
aI0
aI0
aI0
aI0
aI0
aI0
aI0
aI1
aI0
aI0
aI0
aI0
aI0
aI0
aI0
aI0
aI0
aI0
aI0
aI0
aI0
aI0
aI0
aI0
aI0
aI0
aI0
aI0
aI1
aI0
aI0
aI0
aI0
aI0
aI0
aI0
aI0
aI1
aI0
aI0
aI0
aI0
aI0
aI0
aI0
aI0
aI0
aI0
aI0
aI0
aI1
aI0
aI0
aI0
aI0
aI0
aI0
aI0
aI0
aI0
aI0
aI0
aI0
aI0
aI0
aI0
aI0
aI0
aI0
aI0
aI0
aI1
aI0
aI0
aI0
aI0
aI0
aI0
aI0
aI0
aI0
aI0
aI0
aI1
aI0
aI0
aI0
aI0
aI0
aI0
aI0
aI0
aI0
aI0
aI0
aI0
aI0
aI0
aI0
aI0
aI1
aI0
aI0
aI0
aI0
aI0
aI1
aI0
aI0
aI0
aI0
aI0
aI0
aI1
aI0
aI0
aI0
aI0
aI0
aI0
aI0
aI0
aI0
aI0
aI0
aI0
aI0
aI0
aI0
aI0
aI0
aI0
aI0
aI0
aI1
aI0
aI0
aI0
aI0
aI0
aI0
aI0
aI0
aI0
aI0
aI0
aI0
aI0
aI0
aI0
aI1
aI0
aI0
aI0
aI0
aI0
aI0
aI0
aI0
aI1
aI0
aI0
aI0
aI0
aI0
aI0
aI0
aI0
aI0
aI0
aI0
aI0
aI1
aI0
aI0
aI0
aI0
aI0
aI0
aI0
aI0
aI1
aI0
aI0
aI0
aI0
aI0
aI0
aI0
aI0
aI0
aI0
aI0
aI0
aI0
aI0
aI0
aI1
aI0
aI0
aI0
aI0
aI0
aI0
aI0
aI0
aI0
aI0
aI0
aI1
aI0
aI0
aI0
aI0
aI0
aI0
aI0
aI0
aI0
aI0
aI0
aI0
aI0
aI0
aI0
aI0
aI1
aI0
aI0
aI0
aI0
aI0
aI0
aI0
aI0
aI0
aI1
aI0
aI0
aI0
aI0
aI0
aI0
aI0
aI0
aI0
aI0
aI0
aI0
aI1
aI0
aI0
aI0
aI0
aI0
aI1
aI0
aI0
aI0
aI0
aI0
aI0
aI0
aI0
aI0
aI0
aI0
aI0
aI0
aI0
aI1
aI0
aI0
aI0
aI0
aI0
aI0
aI0
aI0
aI0
aI0
aI0
aI0
aI0
aI0
aI0
aI0
aI0
aI1
aI0
aI0
aI0
aI0
aI0
aI0
aI0
aI0
aI0
aI0
aI0
aI0
aI1
aI0
aI0
aI0
aI1
aI0
aI0
aI0
aI0
aI1
aI0
aI0
aI0
aI0
aI0
aI0
aI0
aI0
aI0
aI0
aI1
aI0
aI0
aI0
aI0
aI0
aI0
aI0
aI0
aI0
aI0
aI0
aI0
aI1
aI0
aI0
aI0
aI0
aI0
aI0
aI0
aI0
aI0
aI0
aI0
aI0
aI0
aI0
aI0
aI0
aI1
aI0
aI0
aI0
aI0
aI0
aI0
aI0
aI0
aI0
aI0
aI0
aI0
aI0
aI0
aI1
aI0
aI0
aI0
aI0
aI0
aI0
aI0
aI0
aI0
aI0
aI0
aI0
aI0
aI0
aI0
aI1
aI0
aI0
aI0
aI0
aI0
aI0
aI0
aI0
aI0
aI0
aI0
aI0
aI0
aI0
aI0
aI1
aI0
aI0
aI0
aI0
aI0
aI0
aI0
aI0
aI0
aI0
aI1
aI0
aI0
aI0
aI0
aI0
aI0
aI0
aI0
aI0
aI0
aI0
aI0
aI0
aI0
aI0
aI0
aI0
aI0
aI1
aI0
aI0
aI0
aI0
aI0
aI0
aI0
aI0
aI0
aI0
aI0
aI0
aI0
aI0
aI0
aI1
aI0
aI0
aI0
aI0
aI0
aI0
aI0
aI0
aI0
aI0
aI0
aI1
aI0
aI0
aI0
aI0
aI0
aI0
aI0
aI0
aI0
aI0
aI0
aI0
aI0
aI0
aI0
aI1
aI0
aI0
aI0
aI0
aI0
aI0
aI0
aI0
aI0
aI1
aI0
aI0
aI0
aI0
aI0
aI0
aI0
aI0
aI1
aI0
aI0
aI0
aI0
aI0
aI0
aI0
aI0
aI0
aI0
aI1
aI0
aI0
aI0
aI0
aI1
aI0
aI0
aI0
aI0
aI0
aI1
aI0
aI0
aI0
aI0
aI0
aI0
aI0
aI0
aI1
aI0
aI0
aI0
aI0
aI0
aI0
aI0
aI0
aI0
aI0
aI0
aI0
aI0
aI0
aI0
aI0
aI0
aI0
aI1
aI0
aI0
aI0
aI0
aI0
aI0
aI0
aI0
aI0
aI0
aI0
aI0
aI0
aI0
aI0
aI1
aI0
aI0
aI0
aI0
aI0
aI0
aI0
aI0
aI0
aI0
aI1
aI0
aI0
aI0
aI0
aI1
aI0
aI0
aI0
aI0
aI1
aI0
aI0
aI0
aI0
aI0
aI0
aI0
aI1
aI0
aI0
aI0
aI0
aI0
aI0
aI0
aI0
aI0
aI0
aI1
aI0
aI0
aI0
aI0
aI0
aI0
aI0
aI0
aI0
aI0
aI0
aI0
aI0
aI0
aI0
aI0
aI1
asS'qtables'
p3
(lp4
(dp5
((S'red'
p6
S'forward'
p7
NNS'left'
p8
tp9
Ntp10
F0.0
s((g6
NNg8
g8
tp11
Ntp12
F0.0
s((g6
g7
NNS'right'
p13
tp14
g8
tp15
F-0.1
s((g6
g8
NNg7
tp16
g8
tp17
F-0.1
s((g6
NNNg8
tp18
g7
tp19
F-0.1
s((g6
NNNg8
tp20
g13
tp21
F-0.055692658144605854
s((g6
g7
NNg13
tp22
g7
tp23
F-0.1
s((S'green'
p24
g13
NNg7
tp25
g8
tp26
F-0.1
s((g24
Ng7
Ng7
tp27
Ntp28
F0.0
s((g24
g7
NNg8
tp29
g8
tp30
F-0.1
s((g24
g8
NNg13
tp31
g13
tp32
F0.2
s((g24
NNg13
g13
tp33
g7
tp34
F-0.05
s((g6
g7
NNg7
tp35
g7
tp36
F-0.1
s((g6
NNNg7
tp37
g8
tp38
F-0.1
s((g24
NNg8
g13
tp39
g7
tp40
F-0.05
s((g6
Ng7
Ng7
tp41
g13
tp42
F-0.1
s((g24
Ng8
Ng8
tp43
g13
tp44
F-0.05
s((g24
Ng8
Ng8
tp45
Ntp46
F0.0
s((g6
Ng8
Ng7
tp47
g13
tp48
F-0.05
s((g24
NNNg8
tp49
g7
tp50
F-0.05
s((g24
Ng13
Ng8
tp51
Ntp52
F0.0
s((g6
g7
NNg7
tp53
Ntp54
F0.0
s((g6
g7
NNg7
tp55
g13
tp56
F-0.05
s((g6
g8
NNg7
tp57
g13
tp58
F-0.03715469747463146
s((g24
g13
NNg7
tp59
g13
tp60
F-0.05
s((g6
g7
NNg13
tp61
Ntp62
F0.0
s((g24
NNNg8
tp63
g8
tp64
F3.5051045045099523
s((g24
g8
NNg7
tp65
g7
tp66
F1.7234288970203515
s((g6
NNNg8
tp67
g8
tp68
F-0.1
s((g24
NNNg7
tp69
g7
tp70
F4.3156842816657806
s((g6
g8
NNg8
tp71
Ntp72
F0.0
s((g24
Ng8
Ng7
tp73
g7
tp74
F1.630478
s((g24
NNg7
g7
tp75
g7
tp76
F1.3800000000000001
s((g6
g8
NNg7
tp77
Ntp78
F0.0
s((g6
NNNg8
tp79
Ntp80
F0.0
s((g24
NNNg13
tp81
g8
tp82
F-0.05
s((g24
NNg8
g8
tp83
g13
tp84
F-0.038000000000000006
s((g24
g8
NNg7
tp85
g13
tp86
F-0.05
s((g6
NNg8
g7
tp87
g8
tp88
F-0.1
s((g6
NNg13
g13
tp89
Ntp90
F0.0
s((g6
g13
NNg7
tp91
g7
tp92
F-0.1
s((g6
g7
NNg8
tp93
g13
tp94
F-0.030783058831982825
s((g24
Ng7
Ng7
tp95
g7
tp96
F0.38
s((g6
g7
NNg8
tp97
g7
tp98
F-0.1
s((g6
Ng7
Ng7
tp99
Ntp100
F0.0
s((g24
NNg13
g7
tp101
g7
tp102
F3.3978
s((g24
NNg8
g7
tp103
g13
tp104
F-0.05
s((g24
NNNg7
tp105
g13
tp106
F-0.0462
s((g6
g7
NNg7
tp107
g8
tp108
F-0.1
s((g24
Ng7
Ng7
tp109
g8
tp110
F-0.05
s((g24
NNNg13
tp111
Ntp112
F0.0
s((g24
Ng8
Ng8
tp113
g7
tp114
F-0.04618
s((g24
NNg8
g8
tp115
g7
tp116
F-0.05
s((g24
g7
NNg7
tp117
g8
tp118
F-0.1
s((g24
Ng7
Ng8
tp119
g7
tp120
F-0.05
s((g6
NNNg7
tp121
g7
tp122
F-0.1
s((g6
NNNg7
tp123
Ntp124
F0.0
s((g6
NNNg7
tp125
g13
tp126
F-0.095
s((g24
NNg13
g13
tp127
g8
tp128
F-0.05
s((g6
NNg7
g7
tp129
g13
tp130
F-0.05
s((g6
NNNg13
tp131
Ntp132
F0.0
s((g24
NNNg13
tp133
g13
tp134
F2.6298329021813305
s((g6
g7
NNg8
tp135
g8
tp136
F-0.1
s((g6
Ng13
Ng7
tp137
Ntp138
F0.0
s((g24
g8
NNg7
tp139
g8
tp140
F-0.018977943338285275
s((g6
g8
NNg8
tp141
g8
tp142
F-0.1
s((g6
g13
NNg7
tp143
Ntp144
F0.0
s((g6
NNNg13
tp145
g13
tp146
F2.3657823581269253
s((g6
g8
NNg7
tp147
g7
tp148
F-0.1
s((g24
NNg8
g7
tp149
g7
tp150
F1.4168000000000003
sag5
ag5
ag5
ag5
ag5
ag5
ag5
ag5
ag5
ag5
ag5
ag5
ag5
ag5
ag5
ag5
ag5
ag5
ag5
ag5
ag5
ag5
ag5
ag5
ag5
ag5
ag5
ag5
ag5
ag5
ag5
ag5
ag5
ag5
ag5
ag5
ag5
ag5
ag5
ag5
ag5
ag5
ag5
ag5
ag5
ag5
ag5
ag5
ag5
ag5
ag5
ag5
ag5
ag5
ag5
ag5
ag5
ag5
ag5
ag5
ag5
ag5
ag5
ag5
ag5
ag5
ag5
ag5
ag5
ag5
ag5
ag5
ag5
ag5
ag5
ag5
ag5
ag5
ag5
ag5
ag5
ag5
ag5
ag5
ag5
ag5
ag5
ag5
ag5
ag5
ag5
ag5
ag5
ag5
ag5
ag5
ag5
ag5
ag5
ag5
ag5
ag5
ag5
ag5
ag5
ag5
ag5
ag5
ag5
ag5
ag5
ag5
ag5
ag5
ag5
ag5
ag5
ag5
ag5
ag5
ag5
ag5
ag5
ag5
ag5
ag5
ag5
ag5
ag5
ag5
ag5
ag5
ag5
ag5
ag5
ag5
ag5
ag5
ag5
ag5
ag5
ag5
ag5
ag5
ag5
ag5
ag5
ag5
ag5
ag5
ag5
ag5
ag5
ag5
ag5
ag5
ag5
ag5
ag5
ag5
ag5
ag5
ag5
ag5
ag5
ag5
ag5
ag5
ag5
ag5
ag5
ag5
ag5
ag5
ag5
ag5
ag5
ag5
ag5
ag5
ag5
ag5
ag5
ag5
ag5
ag5
ag5
ag5
ag5
ag5
ag5
ag5
ag5
ag5
ag5
ag5
ag5
ag5
ag5
ag5
ag5
ag5
ag5
ag5
ag5
ag5
ag5
ag5
ag5
ag5
ag5
ag5
ag5
ag5
ag5
ag5
ag5
ag5
ag5
ag5
ag5
ag5
ag5
ag5
ag5
ag5
ag5
ag5
ag5
ag5
ag5
ag5
ag5
ag5
ag5
ag5
ag5
ag5
ag5
ag5
ag5
ag5
ag5
ag5
ag5
ag5
ag5
ag5
ag5
ag5
ag5
ag5
ag5
ag5
ag5
ag5
ag5
ag5
ag5
ag5
ag5
ag5
ag5
ag5
ag5
ag5
ag5
ag5
ag5
ag5
ag5
ag5
ag5
ag5
ag5
ag5
ag5
ag5
ag5
ag5
ag5
ag5
ag5
ag5
ag5
ag5
ag5
ag5
ag5
ag5
ag5
ag5
ag5
ag5
ag5
ag5
ag5
ag5
ag5
ag5
ag5
ag5
ag5
ag5
ag5
ag5
ag5
ag5
ag5
ag5
ag5
ag5
ag5
ag5
ag5
ag5
ag5
ag5
ag5
ag5
ag5
ag5
ag5
ag5
ag5
ag5
ag5
ag5
ag5
ag5
ag5
ag5
ag5
ag5
ag5
ag5
ag5
ag5
ag5
ag5
ag5
ag5
ag5
ag5
ag5
ag5
ag5
ag5
ag5
ag5
ag5
ag5
ag5
ag5
ag5
ag5
ag5
ag5
ag5
ag5
ag5
ag5
ag5
ag5
ag5
ag5
ag5
ag5
ag5
ag5
ag5
ag5
ag5
ag5
ag5
ag5
ag5
ag5
ag5
ag5
ag5
ag5
ag5
ag5
ag5
ag5
ag5
ag5
ag5
ag5
ag5
ag5
ag5
ag5
ag5
ag5
ag5
ag5
ag5
ag5
ag5
ag5
ag5
ag5
ag5
ag5
ag5
ag5
ag5
ag5
ag5
ag5
ag5
ag5
ag5
ag5
ag5
ag5
ag5
ag5
ag5
ag5
ag5
ag5
ag5
ag5
ag5
ag5
ag5
ag5
ag5
ag5
ag5
ag5
ag5
ag5
ag5
ag5
ag5
ag5
ag5
ag5
ag5
ag5
ag5
ag5
ag5
ag5
ag5
ag5
ag5
ag5
ag5
ag5
ag5
ag5
ag5
ag5
ag5
ag5
ag5
ag5
ag5
ag5
ag5
ag5
ag5
ag5
ag5
ag5
ag5
ag5
ag5
ag5
ag5
ag5
ag5
ag5
ag5
ag5
ag5
ag5
ag5
ag5
ag5
ag5
ag5
ag5
ag5
ag5
ag5
ag5
ag5
ag5
ag5
ag5
ag5
ag5
ag5
ag5
ag5
ag5
ag5
ag5
ag5
ag5
ag5
ag5
ag5
ag5
ag5
ag5
ag5
ag5
ag5
ag5
ag5
ag5
ag5
ag5
ag5
ag5
ag5
ag5
ag5
ag5
ag5
ag5
ag5
ag5
ag5
ag5
ag5
ag5
ag5
ag5
ag5
ag5
ag5
ag5
ag5
ag5
ag5
ag5
ag5
ag5
ag5
ag5
ag5
ag5
ag5
ag5
ag5
ag5
ag5
ag5
ag5
ag5
ag5
ag5
ag5
ag5
ag5
ag5
ag5
ag5
ag5
ag5
ag5
ag5
ag5
ag5
ag5
ag5
ag5
ag5
ag5
ag5
ag5
ag5
ag5
ag5
ag5
ag5
ag5
ag5
ag5
ag5
ag5
ag5
ag5
ag5
ag5
ag5
ag5
ag5
ag5
ag5
ag5
ag5
ag5
ag5
ag5
ag5
ag5
ag5
ag5
ag5
ag5
ag5
ag5
ag5
ag5
ag5
ag5
ag5
ag5
ag5
ag5
ag5
ag5
ag5
ag5
ag5
ag5
ag5
ag5
ag5
ag5
ag5
ag5
ag5
ag5
ag5
ag5
ag5
ag5
ag5
ag5
ag5
ag5
ag5
ag5
ag5
ag5
ag5
ag5
ag5
ag5
ag5
ag5
ag5
ag5
ag5
ag5
ag5
ag5
ag5
ag5
ag5
ag5
ag5
ag5
ag5
ag5
ag5
ag5
ag5
ag5
ag5
ag5
ag5
ag5
ag5
ag5
ag5
ag5
ag5
ag5
ag5
ag5
ag5
ag5
ag5
ag5
ag5
ag5
ag5
ag5
ag5
ag5
ag5
ag5
ag5
ag5
ag5
ag5
ag5
ag5
ag5
ag5
ag5
ag5
ag5
ag5
ag5
ag5
ag5
ag5
ag5
ag5
ag5
ag5
ag5
ag5
ag5
ag5
ag5
ag5
ag5
ag5
ag5
ag5
ag5
ag5
ag5
ag5
ag5
ag5
ag5
ag5
ag5
ag5
ag5
ag5
ag5
ag5
ag5
ag5
ag5
ag5
ag5
ag5
ag5
ag5
ag5
ag5
ag5
ag5
ag5
ag5
ag5
ag5
ag5
ag5
ag5
ag5
ag5
ag5
ag5
ag5
ag5
ag5
ag5
ag5
ag5
ag5
ag5
ag5
ag5
ag5
ag5
ag5
ag5
ag5
ag5
ag5
ag5
ag5
ag5
ag5
ag5
ag5
ag5
ag5
ag5
ag5
ag5
ag5
ag5
ag5
ag5
ag5
ag5
ag5
ag5
ag5
ag5
ag5
ag5
ag5
ag5
ag5
ag5
ag5
ag5
ag5
ag5
ag5
ag5
ag5
ag5
ag5
ag5
ag5
ag5
ag5
ag5
ag5
ag5
ag5
ag5
ag5
ag5
ag5
ag5
ag5
ag5
ag5
ag5
ag5
ag5
ag5
ag5
ag5
ag5
ag5
ag5
ag5
ag5
ag5
ag5
ag5
ag5
ag5
ag5
ag5
ag5
ag5
ag5
ag5
ag5
ag5
ag5
ag5
ag5
ag5
ag5
ag5
ag5
ag5
ag5
ag5
ag5
ag5
ag5
ag5
ag5
ag5
ag5
ag5
ag5
ag5
ag5
ag5
ag5
ag5
ag5
ag5
ag5
ag5
ag5
ag5
ag5
ag5
ag5
ag5
ag5
ag5
ag5
ag5
ag5
ag5
ag5
ag5
ag5
ag5
ag5
ag5
ag5
ag5
ag5
ag5
ag5
ag5
ag5
ag5
ag5
ag5
ag5
ag5
ag5
ag5
ag5
ag5
ag5
ag5
ag5
ag5
ag5
ag5
ag5
ag5
ag5
ag5
ag5
ag5
ag5
ag5
ag5
ag5
ag5
ag5
ag5
ag5
ag5
ag5
ag5
ag5
ag5
ag5
ag5
ag5
ag5
ag5
ag5
ag5
ag5
ag5
ag5
ag5
ag5
ag5
ag5
ag5
ag5
ag5
ag5
ag5
ag5
ag5
ag5
ag5
ag5
ag5
ag5
ag5
ag5
ag5
ag5
ag5
ag5
ag5
ag5
ag5
ag5
ag5
ag5
ag5
ag5
ag5
ag5
ag5
ag5
ag5
ag5
ag5
ag5
ag5
ag5
ag5
ag5
ag5
ag5
ag5
ag5
ag5
ag5
ag5
ag5
ag5
ag5
ag5
ag5
ag5
ag5
ag5
ag5
ag5
ag5
ag5
ag5
ag5
ag5
ag5
ag5
ag5
ag5
ag5
ag5
ag5
ag5
ag5
ag5
ag5
ag5
ag5
ag5
ag5
ag5
ag5
ag5
ag5
ag5
ag5
ag5
ag5
ag5
ag5
ag5
ag5
ag5
ag5
ag5
ag5
ag5
ag5
ag5
ag5
ag5
ag5
ag5
ag5
ag5
ag5
ag5
ag5
ag5
ag5
ag5
ag5
ag5
ag5
ag5
ag5
ag5
ag5
ag5
ag5
ag5
ag5
ag5
ag5
ag5
ag5
ag5
ag5
ag5
ag5
ag5
ag5
ag5
ag5
ag5
ag5
ag5
ag5
ag5
ag5
ag5
ag5
ag5
ag5
ag5
ag5
ag5
ag5
ag5
ag5
ag5
ag5
ag5
ag5
ag5
ag5
ag5
ag5
ag5
ag5
ag5
ag5
ag5
ag5
ag5
ag5
ag5
ag5
ag5
ag5
ag5
ag5
ag5
ag5
ag5
ag5
ag5
ag5
ag5
ag5
ag5
ag5
ag5
ag5
ag5
ag5
ag5
ag5
ag5
ag5
ag5
ag5
ag5
ag5
ag5
ag5
ag5
ag5
ag5
ag5
ag5
ag5
ag5
ag5
ag5
ag5
ag5
ag5
ag5
ag5
ag5
ag5
ag5
ag5
ag5
ag5
ag5
ag5
ag5
ag5
ag5
ag5
ag5
ag5
ag5
ag5
ag5
ag5
ag5
ag5
ag5
ag5
ag5
ag5
ag5
ag5
ag5
ag5
ag5
ag5
ag5
ag5
ag5
ag5
ag5
ag5
ag5
ag5
ag5
ag5
ag5
ag5
ag5
ag5
ag5
ag5
ag5
ag5
ag5
ag5
ag5
ag5
ag5
ag5
ag5
ag5
ag5
ag5
ag5
ag5
ag5
ag5
ag5
ag5
ag5
ag5
ag5
ag5
ag5
ag5
ag5
ag5
ag5
ag5
ag5
ag5
ag5
ag5
ag5
ag5
ag5
ag5
ag5
ag5
ag5
ag5
ag5
ag5
ag5
ag5
ag5
ag5
ag5
ag5
ag5
ag5
ag5
ag5
ag5
ag5
ag5
ag5
ag5
ag5
ag5
ag5
ag5
ag5
ag5
ag5
ag5
ag5
ag5
ag5
ag5
ag5
ag5
ag5
ag5
ag5
ag5
ag5
ag5
ag5
ag5
ag5
ag5
ag5
ag5
ag5
ag5
ag5
ag5
ag5
ag5
ag5
ag5
ag5
ag5
ag5
ag5
ag5
ag5
ag5
ag5
ag5
ag5
ag5
ag5
ag5
ag5
ag5
ag5
ag5
ag5
ag5
ag5
ag5
ag5
ag5
ag5
ag5
ag5
ag5
ag5
ag5
ag5
ag5
ag5
ag5
ag5
ag5
ag5
ag5
ag5
ag5
ag5
ag5
ag5
ag5
ag5
ag5
ag5
ag5
ag5
ag5
ag5
ag5
ag5
ag5
ag5
ag5
ag5
ag5
ag5
ag5
ag5
ag5
ag5
ag5
ag5
ag5
ag5
ag5
ag5
ag5
ag5
ag5
ag5
ag5
ag5
ag5
ag5
ag5
ag5
asS'lenq'
p151
(lp152
I1
aI2
aI2
aI3
aI4
aI4
aI5
aI6
aI7
aI8
aI9
aI10
aI11
aI12
aI12
aI13
aI13
aI14
aI14
aI15
aI15
aI15
aI15
aI16
aI16
aI17
aI17
aI17
aI17
aI17
aI18
aI18
aI18
aI18
aI18
aI18
aI19
aI20
aI20
aI20
aI21
aI21
aI21
aI21
aI21
aI21
aI21
aI21
aI21
aI21
aI21
aI21
aI21
aI21
aI21
aI21
aI21
aI21
aI21
aI21
aI21
aI21
aI21
aI21
aI21
aI21
aI21
aI21
aI21
aI21
aI21
aI21
aI21
aI22
aI22
aI22
aI22
aI22
aI22
aI22
aI22
aI22
aI22
aI22
aI22
aI22
aI22
aI22
aI22
aI22
aI22
aI22
aI22
aI22
aI22
aI22
aI22
aI22
aI22
aI22
aI22
aI22
aI22
aI22
aI23
aI23
aI23
aI23
aI23
aI23
aI23
aI23
aI23
aI23
aI23
aI23
aI23
aI23
aI23
aI23
aI23
aI23
aI23
aI23
aI23
aI23
aI23
aI24
aI25
aI26
aI26
aI26
aI26
aI26
aI26
aI26
aI26
aI26
aI26
aI26
aI27
aI27
aI27
aI27
aI27
aI27
aI27
aI27
aI27
aI27
aI27
aI27
aI27
aI27
aI27
aI27
aI27
aI27
aI27
aI27
aI28
aI28
aI28
aI28
aI28
aI28
aI28
aI28
aI28
aI28
aI28
aI28
aI29
aI29
aI29
aI29
aI30
aI30
aI30
aI30
aI30
aI30
aI30
aI31
aI31
aI31
aI32
aI32
aI32
aI32
aI32
aI32
aI32
aI32
aI32
aI32
aI32
aI32
aI32
aI32
aI32
aI32
aI32
aI32
aI32
aI32
aI32
aI33
aI33
aI33
aI34
aI34
aI34
aI34
aI34
aI34
aI34
aI34
aI34
aI34
aI34
aI34
aI34
aI34
aI34
aI34
aI34
aI34
aI34
aI34
aI34
aI34
aI34
aI34
aI34
aI34
aI34
aI34
aI34
aI34
aI34
aI34
aI34
aI34
aI34
aI34
aI34
aI34
aI34
aI34
aI34
aI34
aI34
aI34
aI34
aI34
aI34
aI34
aI34
aI34
aI34
aI34
aI34
aI34
aI34
aI34
aI34
aI34
aI34
aI34
aI34
aI34
aI34
aI34
aI34
aI34
aI34
aI34
aI34
aI34
aI34
aI34
aI34
aI34
aI34
aI34
aI34
aI34
aI34
aI34
aI34
aI34
aI34
aI34
aI34
aI34
aI34
aI34
aI34
aI34
aI34
aI34
aI34
aI34
aI34
aI34
aI34
aI34
aI34
aI34
aI34
aI34
aI34
aI34
aI34
aI34
aI34
aI35
aI35
aI35
aI35
aI35
aI35
aI35
aI36
aI36
aI36
aI36
aI36
aI36
aI36
aI36
aI36
aI36
aI37
aI38
aI38
aI38
aI38
aI38
aI39
aI39
aI39
aI40
aI40
aI40
aI40
aI40
aI40
aI40
aI40
aI40
aI40
aI40
aI40
aI40
aI40
aI40
aI40
aI40
aI40
aI40
aI40
aI40
aI40
aI40
aI40
aI40
aI40
aI40
aI40
aI40
aI40
aI40
aI40
aI40
aI40
aI40
aI40
aI40
aI40
aI40
aI40
aI40
aI40
aI40
aI40
aI40
aI40
aI40
aI40
aI40
aI40
aI40
aI40
aI40
aI40
aI40
aI40
aI40
aI40
aI40
aI40
aI40
aI40
aI40
aI40
aI40
aI40
aI41
aI41
aI41
aI41
aI41
aI41
aI41
aI41
aI41
aI41
aI41
aI41
aI41
aI41
aI41
aI41
aI41
aI41
aI41
aI41
aI41
aI41
aI41
aI41
aI41
aI41
aI41
aI41
aI41
aI41
aI41
aI41
aI41
aI41
aI41
aI41
aI41
aI41
aI41
aI41
aI41
aI41
aI41
aI41
aI41
aI41
aI41
aI41
aI41
aI41
aI41
aI41
aI41
aI41
aI41
aI41
aI41
aI41
aI41
aI41
aI41
aI41
aI41
aI41
aI41
aI42
aI43
aI43
aI43
aI43
aI43
aI43
aI43
aI43
aI43
aI43
aI43
aI43
aI43
aI43
aI43
aI43
aI43
aI43
aI43
aI43
aI43
aI43
aI43
aI43
aI43
aI43
aI43
aI43
aI43
aI43
aI43
aI43
aI43
aI43
aI43
aI43
aI43
aI43
aI44
aI44
aI44
aI44
aI44
aI44
aI44
aI44
aI44
aI44
aI44
aI44
aI44
aI44
aI45
aI45
aI45
aI45
aI45
aI45
aI45
aI45
aI45
aI45
aI45
aI45
aI45
aI45
aI45
aI45
aI45
aI45
aI45
aI45
aI45
aI45
aI45
aI45
aI45
aI45
aI45
aI45
aI45
aI46
aI46
aI46
aI47
aI47
aI47
aI47
aI47
aI47
aI47
aI47
aI47
aI47
aI47
aI47
aI47
aI47
aI47
aI47
aI47
aI47
aI47
aI47
aI47
aI47
aI47
aI47
aI47
aI47
aI47
aI47
aI47
aI47
aI47
aI47
aI47
aI47
aI47
aI47
aI47
aI47
aI47
aI47
aI47
aI47
aI47
aI47
aI47
aI47
aI47
aI47
aI47
aI47
aI47
aI47
aI48
aI48
aI48
aI48
aI48
aI48
aI48
aI48
aI48
aI48
aI48
aI48
aI48
aI48
aI48
aI48
aI48
aI48
aI48
aI48
aI48
aI48
aI48
aI48
aI48
aI48
aI48
aI48
aI48
aI48
aI48
aI48
aI48
aI48
aI48
aI48
aI48
aI48
aI48
aI48
aI48
aI48
aI48
aI48
aI48
aI48
aI48
aI48
aI48
aI48
aI48
aI48
aI48
aI48
aI48
aI48
aI48
aI48
aI48
aI48
aI48
aI48
aI48
aI48
aI48
aI48
aI48
aI48
aI48
aI48
aI48
aI48
aI48
aI48
aI48
aI48
aI49
aI49
aI49
aI49
aI49
aI49
aI49
aI49
aI49
aI49
aI49
aI49
aI49
aI49
aI49
aI49
aI49
aI49
aI49
aI49
aI49
aI49
aI49
aI49
aI49
aI49
aI49
aI49
aI49
aI49
aI50
aI51
aI51
aI51
aI51
aI51
aI51
aI51
aI51
aI51
aI51
aI51
aI51
aI52
aI53
aI53
aI53
aI53
aI53
aI53
aI53
aI53
aI53
aI53
aI53
aI53
aI53
aI53
aI54
aI54
aI54
aI54
aI54
aI54
aI54
aI54
aI54
aI54
aI54
aI55
aI55
aI55
aI55
aI55
aI55
aI55
aI55
aI55
aI55
aI55
aI55
aI55
aI55
aI55
aI55
aI55
aI55
aI55
aI55
aI55
aI55
aI55
aI55
aI55
aI55
aI55
aI55
aI55
aI55
aI55
aI55
aI55
aI55
aI55
aI55
aI55
aI55
aI55
aI55
aI55
aI55
aI55
aI55
aI55
aI55
aI55
aI55
aI55
aI55
aI55
aI55
aI55
aI55
aI55
aI55
aI55
aI55
aI55
aI55
aI55
aI55
aI55
aI55
aI55
aI55
aI55
aI55
aI55
aI55
aI55
aI55
aI55
aI55
aI55
aI55
aI55
aI55
aI55
aI56
aI56
aI56
aI56
aI56
aI56
aI56
aI56
aI56
aI56
aI56
aI56
aI56
aI56
aI56
aI56
aI56
aI57
aI57
aI57
aI57
aI57
aI57
aI57
aI57
aI57
aI57
aI57
aI57
aI57
aI57
aI57
aI57
aI57
aI57
aI57
aI57
aI57
aI57
aI57
aI57
aI57
aI57
aI57
aI57
aI57
aI57
aI57
aI57
aI57
aI57
aI57
aI57
aI57
aI57
aI57
aI57
aI57
aI57
aI57
aI57
aI57
aI57
aI57
aI57
aI57
aI57
aI57
aI57
aI57
aI57
aI57
aI57
aI57
aI57
aI57
aI57
aI57
aI57
aI57
aI57
aI57
aI57
aI57
aI57
aI57
aI57
aI57
aI57
aI57
aI57
aI57
aI57
aI57
aI57
aI57
aI57
aI57
aI57
aI58
aI59
aI59
aI59
aI59
aI59
aI59
aI59
aI59
aI59
aI59
aI59
aI59
aI59
aI59
aI59
aI59
aI59
aI59
aI59
aI59
aI59
aI59
aI59
aI59
aI59
aI59
aI59
aI59
aI59
aI59
aI59
aI59
aI59
aI59
aI59
aI59
aI59
aI59
aI59
aI59
aI60
aI61
aI61
aI61
aI61
aI61
aI61
aI61
aI61
aI61
aI61
aI61
aI61
aI61
aI61
aI62
aI62
aI62
aI62
aI62
aI62
aI62
aI62
aI62
aI62
aI62
aI63
aI63
aI63
aI63
aI63
aI63
aI63
aI63
aI63
aI63
aI63
aI63
aI63
aI63
aI63
aI63
aI63
aI63
aI63
aI63
aI63
aI63
aI63
aI63
aI63
aI63
aI63
aI63
aI63
aI63
aI63
aI63
aI63
aI63
aI63
aI63
aI63
aI64
aI64
aI64
aI64
aI64
aI64
aI64
aI64
aI64
aI64
aI64
aI64
aI64
aI64
aI64
aI64
aI64
aI64
aI64
aI64
aI64
aI64
aI64
aI64
aI65
aI65
aI65
aI65
aI65
aI65
aI65
aI65
aI65
aI65
aI65
aI65
aI65
aI65
aI65
aI65
aI65
aI65
aI65
aI65
aI65
aI65
aI65
aI65
aI65
aI65
aI65
aI65
aI65
aI65
aI65
aI65
aI65
aI65
aI65
aI65
aI65
aI65
aI65
aI65
aI65
aI65
aI65
aI65
aI65
aI65
aI65
aI65
aI65
aI65
aI65
aI65
aI65
aI65
aI65
aI65
aI65
aI65
aI65
aI65
aI65
aI65
aI65
aI65
aI65
aI65
aI65
aI65
aI65
aI65
aI65
aI65
aI65
aI65
aI65
aI65
aI65
aI65
aI65
aI65
aI65
aI66
aI67
aI67
aI67
aI67
aI67
aI67
aI67
aI67
aI67
aI67
aI67
aI67
aI67
aI67
aI67
aI67
aI67
aI67
aI67
aI67
aI67
aI67
aI67
aI67
aI67
aI67
aI67
aI67
aI67
aI67
aI67
aI67
aI67
aI67
aI67
aI67
aI67
aI67
aI67
aI67
aI67
aI67
aI67
aI67
aI67
aI67
aI67
aI67
aI67
aI67
aI67
aI67
aI67
aI67
aI67
aI67
aI67
aI67
aI67
aI67
aI67
aI67
aI67
aI67
aI67
aI67
aI67
aI67
aI67
aI67
aI67
aI67
aI67
aI67
aI67
aI67
aI67
aI67
aI67
aI67
aI67
aI67
aI67
aI67
aI67
aI67
aI67
aI67
aI67
aI67
aI67
aI67
aI67
aI67
aI67
aI67
aI67
aI67
aI67
aI67
aI67
aI67
aI67
aI67
aI67
aI67
aI67
aI67
aI67
aI67
aI67
aI67
aI67
aI67
aI67
aI67
aI67
aI67
aI67
aI67
aI67
aI67
aI67
aI67
aI67
aI67
aI67
aI67
aI67
aI67
aI67
aI67
aI67
aI67
aI67
aI67
aI67
aI67
aI67
aI68
aI68
aI68
aI68
aI68
aI68
aI68
aI68
aI68
aI68
aI68
aI68
aI68
aI68
aI68
aI68
aI68
aI68
aI68
aI68
aI68
aI68
aI68
aI68
aI68
aI68
aI68
aI68
aI68
aI68
aI68
aI68
aI68
aI68
aI68
aI68
aI68
aI68
aI68
aI68
aI68
aI68
aI68
aI68
aI68
aI68
aI68
aI68
aI68
aI68
aI68
aI68
aI68
aI68
aI69
aI69
aI69
aI69
aI69
aI69
aI69
aI69
aI69
aI69
aI70
aI70
aI70
aI70
aI70
aI70
aI70
aI70
aI70
aI70
aI70
aI70
aI70
aI70
aI70
aI70
aI70
aI70
aI70
aI70
aI70
aI70
aI70
aI70
aI70
aI70
aI70
aI70
as.