(dp0
S'successes'
p1
(lp2
I0
aI0
aI0
aI0
aI0
aI0
aI0
aI0
aI0
aI0
aI0
aI0
aI0
aI0
aI0
aI0
aI0
aI0
aI0
aI0
aI0
aI0
aI0
aI0
aI0
aI0
aI0
aI0
aI0
aI0
aI0
aI0
aI0
aI0
aI0
aI1
aI0
aI0
aI0
aI1
aI0
aI0
aI0
aI0
aI0
aI0
aI0
aI0
aI0
aI0
aI0
aI0
aI0
aI0
aI0
aI1
aI0
aI0
aI0
aI0
aI0
aI0
aI0
aI0
aI0
aI0
aI0
aI0
aI0
aI0
aI0
aI1
aI0
aI0
aI0
aI0
aI0
aI0
aI0
aI0
aI0
aI0
aI0
aI0
aI0
aI0
aI0
aI0
aI0
aI0
aI0
aI0
aI0
aI0
aI0
aI0
aI0
aI0
aI0
aI0
aI0
aI0
aI1
aI0
aI0
aI0
aI0
aI0
aI0
aI0
aI0
aI0
aI0
aI0
aI0
aI1
aI0
aI0
aI0
aI0
aI0
aI0
aI0
aI0
aI0
aI0
aI0
aI0
aI0
aI0
aI0
aI0
aI0
aI0
aI0
aI0
aI0
aI0
aI0
aI0
aI0
aI0
aI0
aI0
aI0
aI0
aI0
aI0
aI1
aI0
aI0
aI0
aI0
aI0
aI0
aI0
aI0
aI0
aI0
aI0
aI0
aI0
aI0
aI0
aI0
aI0
aI0
aI0
aI0
aI0
aI1
aI0
aI0
aI0
aI0
aI0
aI0
aI0
aI0
aI0
aI0
aI0
aI0
aI1
aI0
aI0
aI0
aI0
aI0
aI0
aI0
aI0
aI0
aI0
aI0
aI1
aI0
aI0
aI0
aI0
aI0
aI0
aI0
aI1
aI0
aI0
aI0
aI0
aI0
aI0
aI0
aI0
aI0
aI0
aI0
aI0
aI1
aI0
aI0
aI0
aI0
aI0
aI0
aI0
aI0
aI0
aI0
aI0
aI0
aI1
aI0
aI0
aI0
aI0
aI0
aI0
aI0
aI0
aI0
aI0
aI0
aI0
aI1
aI0
aI0
aI0
aI0
aI1
aI0
aI0
aI0
aI0
aI0
aI0
aI0
aI0
aI0
aI0
aI0
aI0
aI1
aI0
aI0
aI0
aI0
aI0
aI0
aI0
aI0
aI1
aI0
aI0
aI0
aI0
aI0
aI0
aI0
aI0
aI0
aI0
aI0
aI0
aI0
aI0
aI0
aI0
aI0
aI0
aI0
aI0
aI0
aI1
aI0
aI0
aI0
aI0
aI0
aI0
aI0
aI0
aI0
aI0
aI0
aI0
aI1
aI0
aI0
aI0
aI0
aI0
aI0
aI0
aI0
aI0
aI0
aI0
aI0
aI0
aI0
aI1
aI0
aI0
aI0
aI0
aI0
aI0
aI0
aI0
aI0
aI0
aI0
aI0
aI0
aI0
aI0
aI0
aI0
aI0
aI0
aI0
aI0
aI0
aI0
aI0
aI0
aI0
aI0
aI0
aI0
aI0
aI0
aI0
aI0
aI0
aI0
aI0
aI0
aI0
aI0
aI1
aI0
aI0
aI0
aI0
aI0
aI0
aI1
aI0
aI0
aI0
aI0
aI0
aI0
aI1
aI0
aI0
aI0
aI0
aI0
aI0
aI0
aI0
aI0
aI0
aI0
aI0
aI0
aI0
aI0
aI0
aI0
aI0
aI0
aI0
aI1
aI0
aI0
aI0
aI0
aI0
aI0
aI0
aI0
aI0
aI0
aI0
aI0
aI0
aI0
aI0
aI0
aI0
aI0
aI0
aI0
aI0
aI0
aI0
aI0
aI0
aI1
aI0
aI0
aI0
aI0
aI0
aI0
aI0
aI0
aI0
aI0
aI0
aI0
aI0
aI0
aI0
aI0
aI1
aI0
aI0
aI0
aI0
aI0
aI0
aI0
aI1
aI0
aI0
aI0
aI0
aI0
aI0
aI0
aI0
aI0
aI0
aI0
aI0
aI1
aI0
aI0
aI0
aI0
aI0
aI0
aI0
aI0
aI0
aI0
aI0
aI1
aI0
aI0
aI0
aI0
aI0
aI0
aI0
aI0
aI0
aI0
aI0
aI0
aI1
aI0
aI0
aI0
aI0
aI0
aI0
aI0
aI0
aI0
aI0
aI1
aI0
aI0
aI0
aI0
aI0
aI0
aI0
aI0
aI0
aI0
aI0
aI0
aI0
aI0
aI0
aI0
aI0
aI0
aI0
aI0
aI1
aI0
aI0
aI0
aI0
aI0
aI0
aI0
aI1
aI0
aI0
aI0
aI0
aI0
aI0
aI0
aI0
aI0
aI0
aI1
aI0
aI0
aI0
aI0
aI0
aI0
aI1
aI0
aI0
aI0
aI0
aI0
aI0
aI0
aI0
aI0
aI0
aI0
aI0
aI0
aI0
aI0
aI0
aI1
aI0
aI0
aI0
aI0
aI0
aI0
aI0
aI0
aI0
aI0
aI0
aI0
aI0
aI1
aI0
aI0
aI0
aI0
aI0
aI0
aI1
aI0
aI0
aI0
aI0
aI0
aI0
aI0
aI0
aI0
aI0
aI0
aI0
aI0
aI0
aI0
aI0
aI0
aI0
aI0
aI0
aI0
aI0
aI0
aI0
aI0
aI0
aI0
aI0
aI0
aI0
aI0
aI0
aI0
aI0
aI0
aI0
aI1
aI0
aI0
aI0
aI0
aI0
aI0
aI0
aI0
aI0
aI0
aI0
aI0
aI0
aI0
aI0
aI0
aI1
aI0
aI0
aI0
aI0
aI0
aI0
aI0
aI0
aI1
aI0
aI0
aI0
aI0
aI0
aI0
aI0
aI0
aI0
aI0
aI0
aI0
aI0
aI0
aI0
aI1
aI0
aI0
aI0
aI0
aI0
aI0
aI0
aI0
aI0
aI0
aI0
aI0
aI1
aI0
aI0
aI0
aI0
aI0
aI0
aI0
aI0
aI0
aI0
aI0
aI0
aI0
aI0
aI0
aI0
aI0
aI1
aI0
aI0
aI0
aI0
aI0
aI0
aI0
aI0
aI0
aI0
aI0
aI0
aI0
aI0
aI0
aI0
aI0
aI0
aI0
aI0
aI0
aI0
aI0
aI0
aI0
aI0
aI0
aI0
aI0
aI0
aI1
aI0
aI0
aI0
aI0
aI0
aI0
aI0
aI0
aI0
aI0
aI0
aI0
aI0
aI0
aI0
aI0
aI0
aI0
aI0
aI0
aI1
aI0
aI0
aI0
aI0
aI0
aI0
aI0
aI1
aI0
aI0
aI0
aI0
aI0
aI0
aI0
aI0
aI0
aI1
aI0
aI0
aI0
aI0
aI0
aI0
aI0
aI0
aI0
aI0
aI0
aI0
aI0
aI1
aI0
aI0
aI0
aI0
aI0
aI0
aI0
aI0
aI0
aI0
aI0
aI0
aI1
aI0
aI0
aI0
aI0
aI0
aI0
aI0
aI0
aI0
aI0
aI0
aI1
aI0
aI0
aI0
aI0
aI0
aI0
aI0
aI0
aI0
aI0
aI0
aI0
aI0
aI0
aI0
aI0
aI0
aI0
aI1
aI0
aI0
aI0
aI0
aI0
aI0
aI0
aI0
aI0
aI0
aI0
aI0
aI0
aI0
aI0
aI0
aI0
aI0
aI0
aI0
aI0
aI0
aI0
aI1
aI0
aI0
aI0
aI0
aI0
aI0
aI0
aI0
aI0
aI0
aI1
aI0
aI0
aI0
aI0
aI0
aI0
aI0
aI0
aI0
aI0
aI0
aI0
aI0
aI1
aI0
aI0
aI0
aI0
aI0
aI0
aI0
aI0
aI0
aI0
aI0
aI0
aI0
aI0
aI0
aI0
aI0
aI0
aI0
aI0
aI0
aI1
aI0
aI0
aI0
aI0
aI0
aI0
aI0
aI0
aI0
aI0
aI1
aI0
aI0
aI0
aI0
aI0
aI0
aI0
aI0
aI0
aI0
aI1
aI0
aI0
aI0
aI1
aI0
aI0
aI0
aI0
aI0
aI0
aI0
aI0
aI1
aI0
aI0
aI0
aI0
aI0
aI0
aI0
aI0
aI0
aI0
aI0
aI0
aI0
aI0
aI0
aI0
aI0
aI0
aI0
aI0
aI0
aI0
aI0
aI0
aI0
aI0
aI1
aI0
aI0
aI0
aI0
aI0
aI0
aI0
aI0
aI1
aI0
aI0
aI0
aI0
aI0
aI0
aI0
aI0
aI0
aI0
aI0
aI0
aI1
aI0
aI1
aI0
aI0
aI0
aI0
aI0
aI0
aI0
aI0
aI0
aI0
aI0
aI0
aI0
aI0
aI0
aI0
aI1
aI0
aI0
aI0
aI0
aI0
aI0
aI0
aI0
aI0
aI0
aI0
aI0
aI0
aI1
aI0
aI0
aI0
aI0
aI0
aI0
aI0
aI0
aI0
aI0
aI0
aI0
aI0
aI0
aI0
aI0
aI0
aI0
aI0
aI0
aI1
aI0
aI0
aI0
aI0
aI0
aI0
aI0
aI0
aI0
aI0
aI0
aI0
aI0
aI0
aI0
aI0
aI0
aI0
aI0
aI1
aI0
aI0
aI0
aI0
aI0
aI0
aI0
aI0
aI0
aI1
aI0
aI0
aI0
aI0
aI0
aI0
aI0
aI0
aI0
aI0
aI0
aI0
aI1
aI0
aI0
aI0
aI0
aI0
aI0
aI0
aI0
aI0
aI0
aI0
aI0
aI0
aI0
aI0
aI0
aI0
aI0
aI0
aI0
aI0
aI0
aI1
aI0
aI0
aI0
aI0
aI0
aI0
aI0
aI0
aI0
aI0
aI0
aI0
aI0
aI0
aI0
aI1
aI0
aI0
aI0
aI0
aI0
aI0
aI0
aI1
aI0
aI0
aI0
aI0
aI0
aI0
aI0
aI0
aI0
aI0
aI1
aI0
aI0
aI0
aI0
aI0
aI0
aI0
aI0
aI1
aI0
aI0
aI0
aI0
aI0
aI0
aI0
aI0
aI1
aI0
aI0
aI0
aI0
aI0
aI0
aI0
aI0
aI0
aI0
aI0
aI1
aI0
aI0
aI0
aI0
aI0
aI0
aI0
aI0
aI0
aI0
aI0
aI0
aI0
aI0
aI0
aI0
aI0
aI0
aI1
aI0
aI0
aI0
aI0
aI0
aI0
aI0
aI0
aI0
aI0
aI0
aI0
aI0
aI0
aI0
aI0
aI0
aI0
aI0
aI0
aI1
aI0
aI0
aI0
aI0
aI0
aI1
aI0
aI0
aI0
aI0
aI0
aI0
aI0
aI0
aI0
aI0
aI0
aI0
aI0
aI0
aI0
aI1
aI0
aI0
aI0
aI0
aI0
aI0
aI0
aI0
aI0
aI0
aI0
aI0
aI1
aI0
aI0
aI0
aI0
aI0
aI1
aI0
aI0
aI0
aI0
aI0
aI0
aI0
aI0
aI0
aI0
aI0
aI0
aI0
aI0
aI0
aI0
aI0
aI0
aI0
aI0
aI0
aI1
aI0
aI0
aI0
aI0
aI0
aI0
aI0
aI0
aI0
aI0
aI0
aI0
aI0
aI0
aI0
aI0
aI0
aI0
aI0
aI0
aI1
aI0
aI0
aI0
aI0
aI0
aI0
aI0
aI0
aI0
aI0
aI0
aI0
aI1
aI0
aI0
aI0
aI0
aI0
aI0
aI0
aI1
aI0
aI0
aI0
aI0
aI0
aI0
aI1
aI0
aI0
aI0
aI0
aI0
aI0
aI0
aI0
aI0
aI0
aI0
aI0
aI1
aI0
aI0
aI0
aI0
aI0
aI0
aI0
aI0
aI0
aI0
aI0
aI0
aI0
aI0
aI1
aI0
aI0
aI0
aI0
aI0
aI0
aI0
aI0
aI0
aI1
aI0
aI0
aI0
aI0
aI0
aI0
aI0
aI0
aI0
aI0
aI0
aI0
aI0
aI0
aI0
aI0
aI0
aI0
aI0
aI1
aI0
aI0
aI0
aI0
aI0
aI0
aI1
aI0
aI0
aI0
aI0
aI0
aI0
aI0
aI0
aI0
aI1
aI0
aI0
aI0
aI0
aI1
aI0
aI0
aI0
aI0
aI0
aI0
aI0
aI0
aI0
aI0
aI1
aI0
aI0
aI0
aI0
aI0
aI0
aI1
aI0
aI0
aI0
aI0
aI0
aI0
aI0
aI0
aI0
aI0
aI0
aI0
aI1
asS'qtables'
p3
(lp4
(dp5
((S'red'
p6
NNNS'left'
p7
tp8
S'forward'
p9
tp10
F-0.1
s((g6
NS'right'
p11
Ng7
tp12
g9
tp13
F-0.1
s((g6
g7
NNg11
tp14
g7
tp15
F-0.1
s((g6
g9
NNg9
tp16
Ntp17
F0.0
s((g6
NNNg7
tp18
g11
tp19
F-0.095
s((g6
g9
NNg11
tp20
Ntp21
F0.0
s((g6
g9
NNg11
tp22
g9
tp23
F-0.1
s((S'green'
p24
NNg11
g9
tp25
Ntp26
F0.0
s((g6
NNg11
g9
tp27
g7
tp28
F-0.1
s((g24
g7
NNg11
tp29
g11
tp30
F0.5045343431009124
s((g24
NNg9
g9
tp31
g11
tp32
F-0.05
s((g6
g9
NNg9
tp33
g9
tp34
F-0.1
s((g6
NNNg9
tp35
g7
tp36
F-0.1
s((g24
NNg7
g7
tp37
Ntp38
F0.0
s((g6
g7
NNg11
tp39
g9
tp40
F-0.1
s((g24
NNg9
g9
tp41
g7
tp42
F-0.05
s((g6
Ng9
Ng9
tp43
g7
tp44
F-0.1
s((g6
NNNg9
tp45
g9
tp46
F-0.1
s((g6
g9
NNg9
tp47
g11
tp48
F-0.013542686702684367
s((g6
NNg11
g9
tp49
g11
tp50
F-0.05
s((g6
g7
NNg9
tp51
g11
tp52
F0.2661836728699324
s((g6
NNNg11
tp53
g9
tp54
F-0.1
s((g24
NNNg7
tp55
g7
tp56
F3.9730309487354813
s((g24
g7
NNg9
tp57
g9
tp58
F1.2000000000000002
s((g6
NNNg7
tp59
g7
tp60
F-0.1
s((g6
Ng11
Ng9
tp61
g9
tp62
F-0.1
s((g24
NNNg9
tp63
g9
tp64
F6.862800031817908
s((g6
NNg7
g9
tp65
g9
tp66
F-0.1
s((g24
g7
NNg11
tp67
Ntp68
F0.0
s((g24
NNg7
g9
tp69
g9
tp70
F1.5419999999999998
s((g6
g9
NNg11
tp71
g11
tp72
F1.3800000000000001
s((g24
NNg9
g9
tp73
Ntp74
F0.0
s((g24
NNg9
g11
tp75
g9
tp76
F-0.05
s((g6
Ng7
Ng9
tp77
g9
tp78
F-0.1
s((g6
NNNg7
tp79
Ntp80
F0.0
s((g24
NNNg11
tp81
g7
tp82
F-0.04000000000000001
s((g24
g11
NNg9
tp83
Ntp84
F0.0
s((g6
Ng11
Ng11
tp85
Ntp86
F0.0
s((g24
Ng7
Ng9
tp87
g9
tp88
F2.4269600000000002
s((g6
Ng7
Ng9
tp89
g7
tp90
F-0.1
s((g6
g9
NNg7
tp91
g9
tp92
F-0.1
s((g6
Ng9
Ng9
tp93
Ntp94
F0.0
s((g24
Ng11
Ng9
tp95
g11
tp96
F-0.05
s((g24
NNg7
g9
tp97
g11
tp98
F-0.05
s((g24
NNNg9
tp99
g11
tp100
F-0.05
s((g24
NNg7
g9
tp101
g7
tp102
F-0.05
s((g6
g9
NNg9
tp103
g7
tp104
F-0.1
s((g6
g11
NNg11
tp105
Ntp106
F0.0
s((g24
Ng9
Ng9
tp107
g7
tp108
F-0.05
s((g24
NNg11
g9
tp109
g7
tp110
F-0.05
s((g24
NNNg11
tp111
Ntp112
F0.0
s((g6
Ng11
Ng9
tp113
g7
tp114
F-0.1
s((g24
NNg7
g7
tp115
g9
tp116
F-0.05
s((g24
NNNg7
tp117
Ntp118
F0.0
s((g6
Ng9
Ng9
tp119
g9
tp120
F-0.1
s((g6
NNNg9
tp121
Ntp122
F0.0
s((g6
NNNg9
tp123
g11
tp124
F-0.095
s((g6
NNNg11
tp125
Ntp126
F0.0
s((g24
NNNg11
tp127
g11
tp128
F3.942426311942511
s((g6
Ng7
Ng9
tp129
g11
tp130
F-0.05
s((g6
NNg11
g9
tp131
Ntp132
F0.0
s((g24
NNg9
g9
tp133
g9
tp134
F0.6878000000000001
s((g6
Ng7
Ng9
tp135
Ntp136
F0.0
s((g6
NNNg11
tp137
g11
tp138
F3.240886702957406
s((g6
NNg11
g9
tp139
g9
tp140
F-0.1
s((g24
g7
NNg7
tp141
Ntp142
F0.0
sag5
ag5
ag5
ag5
ag5
ag5
ag5
ag5
ag5
ag5
ag5
ag5
ag5
ag5
ag5
ag5
ag5
ag5
ag5
ag5
ag5
ag5
ag5
ag5
ag5
ag5
ag5
ag5
ag5
ag5
ag5
ag5
ag5
ag5
ag5
ag5
ag5
ag5
ag5
ag5
ag5
ag5
ag5
ag5
ag5
ag5
ag5
ag5
ag5
ag5
ag5
ag5
ag5
ag5
ag5
ag5
ag5
ag5
ag5
ag5
ag5
ag5
ag5
ag5
ag5
ag5
ag5
ag5
ag5
ag5
ag5
ag5
ag5
ag5
ag5
ag5
ag5
ag5
ag5
ag5
ag5
ag5
ag5
ag5
ag5
ag5
ag5
ag5
ag5
ag5
ag5
ag5
ag5
ag5
ag5
ag5
ag5
ag5
ag5
ag5
ag5
ag5
ag5
ag5
ag5
ag5
ag5
ag5
ag5
ag5
ag5
ag5
ag5
ag5
ag5
ag5
ag5
ag5
ag5
ag5
ag5
ag5
ag5
ag5
ag5
ag5
ag5
ag5
ag5
ag5
ag5
ag5
ag5
ag5
ag5
ag5
ag5
ag5
ag5
ag5
ag5
ag5
ag5
ag5
ag5
ag5
ag5
ag5
ag5
ag5
ag5
ag5
ag5
ag5
ag5
ag5
ag5
ag5
ag5
ag5
ag5
ag5
ag5
ag5
ag5
ag5
ag5
ag5
ag5
ag5
ag5
ag5
ag5
ag5
ag5
ag5
ag5
ag5
ag5
ag5
ag5
ag5
ag5
ag5
ag5
ag5
ag5
ag5
ag5
ag5
ag5
ag5
ag5
ag5
ag5
ag5
ag5
ag5
ag5
ag5
ag5
ag5
ag5
ag5
ag5
ag5
ag5
ag5
ag5
ag5
ag5
ag5
ag5
ag5
ag5
ag5
ag5
ag5
ag5
ag5
ag5
ag5
ag5
ag5
ag5
ag5
ag5
ag5
ag5
ag5
ag5
ag5
ag5
ag5
ag5
ag5
ag5
ag5
ag5
ag5
ag5
ag5
ag5
ag5
ag5
ag5
ag5
ag5
ag5
ag5
ag5
ag5
ag5
ag5
ag5
ag5
ag5
ag5
ag5
ag5
ag5
ag5
ag5
ag5
ag5
ag5
ag5
ag5
ag5
ag5
ag5
ag5
ag5
ag5
ag5
ag5
ag5
ag5
ag5
ag5
ag5
ag5
ag5
ag5
ag5
ag5
ag5
ag5
ag5
ag5
ag5
ag5
ag5
ag5
ag5
ag5
ag5
ag5
ag5
ag5
ag5
ag5
ag5
ag5
ag5
ag5
ag5
ag5
ag5
ag5
ag5
ag5
ag5
ag5
ag5
ag5
ag5
ag5
ag5
ag5
ag5
ag5
ag5
ag5
ag5
ag5
ag5
ag5
ag5
ag5
ag5
ag5
ag5
ag5
ag5
ag5
ag5
ag5
ag5
ag5
ag5
ag5
ag5
ag5
ag5
ag5
ag5
ag5
ag5
ag5
ag5
ag5
ag5
ag5
ag5
ag5
ag5
ag5
ag5
ag5
ag5
ag5
ag5
ag5
ag5
ag5
ag5
ag5
ag5
ag5
ag5
ag5
ag5
ag5
ag5
ag5
ag5
ag5
ag5
ag5
ag5
ag5
ag5
ag5
ag5
ag5
ag5
ag5
ag5
ag5
ag5
ag5
ag5
ag5
ag5
ag5
ag5
ag5
ag5
ag5
ag5
ag5
ag5
ag5
ag5
ag5
ag5
ag5
ag5
ag5
ag5
ag5
ag5
ag5
ag5
ag5
ag5
ag5
ag5
ag5
ag5
ag5
ag5
ag5
ag5
ag5
ag5
ag5
ag5
ag5
ag5
ag5
ag5
ag5
ag5
ag5
ag5
ag5
ag5
ag5
ag5
ag5
ag5
ag5
ag5
ag5
ag5
ag5
ag5
ag5
ag5
ag5
ag5
ag5
ag5
ag5
ag5
ag5
ag5
ag5
ag5
ag5
ag5
ag5
ag5
ag5
ag5
ag5
ag5
ag5
ag5
ag5
ag5
ag5
ag5
ag5
ag5
ag5
ag5
ag5
ag5
ag5
ag5
ag5
ag5
ag5
ag5
ag5
ag5
ag5
ag5
ag5
ag5
ag5
ag5
ag5
ag5
ag5
ag5
ag5
ag5
ag5
ag5
ag5
ag5
ag5
ag5
ag5
ag5
ag5
ag5
ag5
ag5
ag5
ag5
ag5
ag5
ag5
ag5
ag5
ag5
ag5
ag5
ag5
ag5
ag5
ag5
ag5
ag5
ag5
ag5
ag5
ag5
ag5
ag5
ag5
ag5
ag5
ag5
ag5
ag5
ag5
ag5
ag5
ag5
ag5
ag5
ag5
ag5
ag5
ag5
ag5
ag5
ag5
ag5
ag5
ag5
ag5
ag5
ag5
ag5
ag5
ag5
ag5
ag5
ag5
ag5
ag5
ag5
ag5
ag5
ag5
ag5
ag5
ag5
ag5
ag5
ag5
ag5
ag5
ag5
ag5
ag5
ag5
ag5
ag5
ag5
ag5
ag5
ag5
ag5
ag5
ag5
ag5
ag5
ag5
ag5
ag5
ag5
ag5
ag5
ag5
ag5
ag5
ag5
ag5
ag5
ag5
ag5
ag5
ag5
ag5
ag5
ag5
ag5
ag5
ag5
ag5
ag5
ag5
ag5
ag5
ag5
ag5
ag5
ag5
ag5
ag5
ag5
ag5
ag5
ag5
ag5
ag5
ag5
ag5
ag5
ag5
ag5
ag5
ag5
ag5
ag5
ag5
ag5
ag5
ag5
ag5
ag5
ag5
ag5
ag5
ag5
ag5
ag5
ag5
ag5
ag5
ag5
ag5
ag5
ag5
ag5
ag5
ag5
ag5
ag5
ag5
ag5
ag5
ag5
ag5
ag5
ag5
ag5
ag5
ag5
ag5
ag5
ag5
ag5
ag5
ag5
ag5
ag5
ag5
ag5
ag5
ag5
ag5
ag5
ag5
ag5
ag5
ag5
ag5
ag5
ag5
ag5
ag5
ag5
ag5
ag5
ag5
ag5
ag5
ag5
ag5
ag5
ag5
ag5
ag5
ag5
ag5
ag5
ag5
ag5
ag5
ag5
ag5
ag5
ag5
ag5
ag5
ag5
ag5
ag5
ag5
ag5
ag5
ag5
ag5
ag5
ag5
ag5
ag5
ag5
ag5
ag5
ag5
ag5
ag5
ag5
ag5
ag5
ag5
ag5
ag5
ag5
ag5
ag5
ag5
ag5
ag5
ag5
ag5
ag5
ag5
ag5
ag5
ag5
ag5
ag5
ag5
ag5
ag5
ag5
ag5
ag5
ag5
ag5
ag5
ag5
ag5
ag5
ag5
ag5
ag5
ag5
ag5
ag5
ag5
ag5
ag5
ag5
ag5
ag5
ag5
ag5
ag5
ag5
ag5
ag5
ag5
ag5
ag5
ag5
ag5
ag5
ag5
ag5
ag5
ag5
ag5
ag5
ag5
ag5
ag5
ag5
ag5
ag5
ag5
ag5
ag5
ag5
ag5
ag5
ag5
ag5
ag5
ag5
ag5
ag5
ag5
ag5
ag5
ag5
ag5
ag5
ag5
ag5
ag5
ag5
ag5
ag5
ag5
ag5
ag5
ag5
ag5
ag5
ag5
ag5
ag5
ag5
ag5
ag5
ag5
ag5
ag5
ag5
ag5
ag5
ag5
ag5
ag5
ag5
ag5
ag5
ag5
ag5
ag5
ag5
ag5
ag5
ag5
ag5
ag5
ag5
ag5
ag5
ag5
ag5
ag5
ag5
ag5
ag5
ag5
ag5
ag5
ag5
ag5
ag5
ag5
ag5
ag5
ag5
ag5
ag5
ag5
ag5
ag5
ag5
ag5
ag5
ag5
ag5
ag5
ag5
ag5
ag5
ag5
ag5
ag5
ag5
ag5
ag5
ag5
ag5
ag5
ag5
ag5
ag5
ag5
ag5
ag5
ag5
ag5
ag5
ag5
ag5
ag5
ag5
ag5
ag5
ag5
ag5
ag5
ag5
ag5
ag5
ag5
ag5
ag5
ag5
ag5
ag5
ag5
ag5
ag5
ag5
ag5
ag5
ag5
ag5
ag5
ag5
ag5
ag5
ag5
ag5
ag5
ag5
ag5
ag5
ag5
ag5
ag5
ag5
ag5
ag5
ag5
ag5
ag5
ag5
ag5
ag5
ag5
ag5
ag5
ag5
ag5
ag5
ag5
ag5
ag5
ag5
ag5
ag5
ag5
ag5
ag5
ag5
ag5
ag5
ag5
ag5
ag5
ag5
ag5
ag5
ag5
ag5
ag5
ag5
ag5
ag5
ag5
ag5
ag5
ag5
ag5
ag5
ag5
ag5
ag5
ag5
ag5
ag5
ag5
ag5
ag5
ag5
ag5
ag5
ag5
ag5
ag5
ag5
ag5
ag5
ag5
ag5
ag5
ag5
ag5
ag5
ag5
ag5
ag5
ag5
ag5
ag5
ag5
ag5
ag5
ag5
ag5
ag5
ag5
ag5
ag5
ag5
ag5
ag5
ag5
ag5
ag5
ag5
ag5
ag5
ag5
ag5
ag5
ag5
ag5
ag5
ag5
ag5
ag5
ag5
ag5
ag5
ag5
ag5
ag5
ag5
ag5
ag5
ag5
ag5
ag5
ag5
ag5
ag5
ag5
ag5
ag5
ag5
ag5
ag5
ag5
ag5
ag5
ag5
ag5
ag5
ag5
ag5
ag5
ag5
ag5
ag5
ag5
ag5
ag5
ag5
ag5
ag5
ag5
ag5
ag5
ag5
ag5
ag5
ag5
ag5
ag5
ag5
ag5
ag5
ag5
ag5
ag5
ag5
ag5
ag5
ag5
ag5
ag5
ag5
ag5
ag5
ag5
ag5
ag5
ag5
ag5
ag5
ag5
ag5
ag5
ag5
ag5
ag5
ag5
ag5
ag5
ag5
ag5
ag5
ag5
ag5
ag5
ag5
ag5
ag5
ag5
ag5
ag5
ag5
ag5
ag5
ag5
ag5
ag5
ag5
ag5
ag5
ag5
ag5
ag5
ag5
ag5
ag5
ag5
ag5
ag5
ag5
ag5
ag5
ag5
ag5
ag5
ag5
ag5
ag5
ag5
ag5
ag5
ag5
ag5
ag5
ag5
ag5
ag5
ag5
ag5
ag5
ag5
ag5
ag5
ag5
ag5
ag5
ag5
ag5
ag5
ag5
ag5
ag5
ag5
ag5
ag5
ag5
ag5
ag5
ag5
ag5
ag5
ag5
ag5
ag5
ag5
ag5
ag5
ag5
ag5
ag5
ag5
ag5
ag5
ag5
ag5
ag5
ag5
ag5
ag5
ag5
ag5
ag5
ag5
ag5
ag5
ag5
ag5
ag5
ag5
ag5
ag5
ag5
ag5
ag5
ag5
ag5
ag5
ag5
ag5
ag5
ag5
ag5
ag5
ag5
ag5
ag5
ag5
ag5
ag5
ag5
ag5
ag5
ag5
ag5
ag5
ag5
ag5
ag5
ag5
ag5
ag5
ag5
ag5
ag5
ag5
ag5
ag5
ag5
ag5
ag5
ag5
ag5
ag5
ag5
ag5
ag5
ag5
ag5
ag5
ag5
ag5
ag5
ag5
ag5
ag5
ag5
ag5
ag5
ag5
ag5
ag5
ag5
ag5
ag5
ag5
ag5
ag5
ag5
ag5
ag5
ag5
ag5
ag5
ag5
ag5
ag5
ag5
ag5
ag5
ag5
ag5
ag5
ag5
ag5
ag5
ag5
ag5
ag5
ag5
ag5
ag5
ag5
ag5
ag5
ag5
ag5
ag5
ag5
ag5
ag5
ag5
ag5
ag5
ag5
ag5
ag5
ag5
ag5
ag5
ag5
ag5
ag5
ag5
ag5
ag5
ag5
ag5
ag5
ag5
ag5
ag5
ag5
ag5
ag5
ag5
ag5
ag5
ag5
ag5
ag5
ag5
ag5
ag5
ag5
ag5
ag5
ag5
ag5
ag5
ag5
ag5
ag5
ag5
ag5
ag5
ag5
ag5
ag5
ag5
ag5
ag5
ag5
ag5
ag5
ag5
ag5
ag5
ag5
ag5
ag5
ag5
ag5
ag5
ag5
ag5
ag5
ag5
ag5
ag5
ag5
ag5
ag5
ag5
ag5
ag5
ag5
ag5
ag5
ag5
ag5
ag5
asS'lenq'
p143
(lp144
I1
aI2
aI3
aI4
aI5
aI6
aI7
aI8
aI9
aI10
aI10
aI11
aI12
aI13
aI14
aI15
aI15
aI15
aI15
aI16
aI16
aI16
aI17
aI17
aI17
aI17
aI17
aI17
aI17
aI17
aI17
aI17
aI17
aI17
aI17
aI17
aI17
aI17
aI17
aI17
aI17
aI17
aI17
aI17
aI17
aI17
aI17
aI17
aI17
aI17
aI17
aI17
aI18
aI18
aI18
aI18
aI19
aI19
aI19
aI19
aI19
aI19
aI19
aI19
aI19
aI19
aI19
aI19
aI19
aI19
aI20
aI20
aI20
aI20
aI20
aI20
aI20
aI20
aI20
aI20
aI20
aI20
aI20
aI20
aI20
aI21
aI21
aI21
aI21
aI21
aI21
aI21
aI21
aI21
aI21
aI21
aI21
aI21
aI21
aI21
aI21
aI21
aI21
aI21
aI21
aI22
aI23
aI24
aI24
aI24
aI24
aI24
aI24
aI24
aI24
aI24
aI24
aI24
aI24
aI24
aI24
aI24
aI24
aI24
aI24
aI24
aI24
aI24
aI24
aI24
aI24
aI24
aI24
aI24
aI24
aI24
aI24
aI24
aI24
aI24
aI24
aI24
aI24
aI24
aI24
aI24
aI24
aI24
aI24
aI24
aI24
aI24
aI24
aI24
aI24
aI24
aI24
aI24
aI24
aI24
aI24
aI24
aI24
aI24
aI24
aI24
aI24
aI24
aI24
aI24
aI24
aI24
aI24
aI24
aI24
aI24
aI25
aI25
aI25
aI25
aI25
aI25
aI25
aI25
aI25
aI25
aI25
aI25
aI25
aI25
aI26
aI26
aI26
aI26
aI26
aI26
aI26
aI26
aI26
aI26
aI26
aI26
aI26
aI26
aI26
aI26
aI26
aI26
aI26
aI26
aI26
aI26
aI26
aI26
aI27
aI27
aI27
aI27
aI27
aI27
aI27
aI27
aI27
aI27
aI27
aI27
aI27
aI27
aI27
aI27
aI28
aI28
aI28
aI28
aI28
aI28
aI28
aI28
aI28
aI28
aI28
aI28
aI28
aI28
aI29
aI29
aI29
aI29
aI29
aI29
aI29
aI29
aI29
aI29
aI29
aI29
aI29
aI29
aI29
aI29
aI29
aI29
aI29
aI29
aI29
aI29
aI29
aI29
aI29
aI29
aI30
aI31
aI32
aI32
aI32
aI32
aI32
aI32
aI32
aI32
aI32
aI33
aI34
aI34
aI34
aI34
aI34
aI34
aI34
aI34
aI34
aI34
aI34
aI34
aI34
aI34
aI34
aI34
aI34
aI34
aI34
aI34
aI34
aI34
aI34
aI34
aI34
aI34
aI34
aI34
aI34
aI34
aI34
aI34
aI34
aI34
aI34
aI34
aI34
aI34
aI35
aI35
aI35
aI35
aI35
aI35
aI35
aI35
aI35
aI35
aI36
aI36
aI36
aI36
aI36
aI36
aI36
aI36
aI36
aI36
aI36
aI36
aI37
aI37
aI37
aI37
aI37
aI37
aI37
aI37
aI37
aI37
aI37
aI37
aI37
aI37
aI37
aI37
aI37
aI37
aI37
aI37
aI37
aI37
aI37
aI37
aI37
aI37
aI37
aI37
aI37
aI37
aI37
aI38
aI38
aI38
aI38
aI38
aI38
aI38
aI38
aI38
aI38
aI38
aI38
aI38
aI38
aI38
aI38
aI38
aI38
aI38
aI38
aI38
aI38
aI38
aI38
aI38
aI38
aI39
aI39
aI39
aI39
aI39
aI39
aI39
aI39
aI39
aI39
aI39
aI39
aI39
aI39
aI39
aI39
aI39
aI39
aI39
aI39
aI39
aI39
aI39
aI39
aI39
aI39
aI39
aI39
aI39
aI39
aI39
aI39
aI39
aI39
aI39
aI39
aI39
aI39
aI39
aI39
aI39
aI39
aI39
aI39
aI39
aI39
aI39
aI39
aI39
aI39
aI39
aI39
aI39
aI39
aI39
aI39
aI39
aI39
aI39
aI39
aI39
aI39
aI39
aI39
aI39
aI39
aI39
aI39
aI39
aI39
aI39
aI39
aI39
aI39
aI39
aI39
aI39
aI39
aI39
aI39
aI39
aI39
aI39
aI39
aI39
aI39
aI39
aI39
aI39
aI39
aI39
aI39
aI39
aI39
aI39
aI39
aI39
aI39
aI39
aI39
aI39
aI39
aI39
aI39
aI39
aI39
aI39
aI39
aI39
aI39
aI39
aI39
aI39
aI39
aI39
aI39
aI39
aI39
aI39
aI39
aI39
aI39
aI39
aI39
aI39
aI39
aI39
aI39
aI39
aI39
aI39
aI39
aI39
aI39
aI39
aI39
aI39
aI39
aI39
aI39
aI39
aI39
aI39
aI39
aI39
aI39
aI39
aI39
aI39
aI39
aI39
aI39
aI39
aI39
aI39
aI39
aI39
aI39
aI39
aI39
aI39
aI39
aI39
aI39
aI39
aI39
aI39
aI39
aI39
aI40
aI40
aI40
aI40
aI41
aI41
aI41
aI41
aI41
aI41
aI41
aI41
aI41
aI41
aI41
aI41
aI41
aI41
aI41
aI41
aI41
aI41
aI41
aI41
aI41
aI41
aI41
aI41
aI42
aI42
aI42
aI42
aI42
aI42
aI42
aI42
aI42
aI42
aI43
aI43
aI43
aI43
aI43
aI43
aI43
aI43
aI43
aI43
aI43
aI43
aI43
aI43
aI43
aI43
aI43
aI43
aI44
aI44
aI44
aI44
aI44
aI44
aI44
aI44
aI44
aI44
aI44
aI44
aI44
aI44
aI44
aI44
aI44
aI44
aI44
aI44
aI44
aI44
aI44
aI44
aI44
aI44
aI44
aI44
aI44
aI44
aI44
aI44
aI44
aI44
aI44
aI44
aI44
aI44
aI44
aI44
aI44
aI44
aI44
aI44
aI44
aI44
aI44
aI44
aI44
aI44
aI44
aI44
aI44
aI44
aI44
aI44
aI44
aI44
aI44
aI44
aI44
aI44
aI44
aI44
aI44
aI44
aI44
aI44
aI44
aI44
aI44
aI44
aI44
aI45
aI45
aI45
aI45
aI45
aI45
aI45
aI45
aI45
aI45
aI45
aI45
aI45
aI45
aI45
aI45
aI45
aI45
aI45
aI45
aI46
aI46
aI46
aI46
aI46
aI46
aI46
aI46
aI46
aI46
aI46
aI46
aI46
aI46
aI46
aI46
aI46
aI46
aI46
aI46
aI46
aI46
aI46
aI46
aI46
aI46
aI46
aI46
aI46
aI46
aI46
aI46
aI46
aI46
aI46
aI46
aI46
aI46
aI46
aI46
aI46
aI46
aI46
aI46
aI46
aI46
aI46
aI46
aI46
aI46
aI46
aI46
aI46
aI46
aI46
aI46
aI46
aI46
aI46
aI46
aI46
aI46
aI46
aI46
aI46
aI46
aI46
aI46
aI46
aI46
aI46
aI46
aI46
aI46
aI46
aI46
aI46
aI46
aI46
aI46
aI46
aI46
aI46
aI46
aI46
aI46
aI46
aI46
aI46
aI46
aI46
aI46
aI46
aI46
aI46
aI46
aI46
aI46
aI46
aI46
aI46
aI46
aI46
aI46
aI46
aI46
aI46
aI46
aI46
aI46
aI46
aI46
aI46
aI46
aI46
aI47
aI47
aI47
aI47
aI47
aI47
aI47
aI47
aI47
aI47
aI47
aI47
aI47
aI47
aI47
aI47
aI47
aI47
aI47
aI47
aI47
aI47
aI47
aI47
aI47
aI47
aI47
aI47
aI47
aI47
aI47
aI47
aI47
aI47
aI47
aI47
aI47
aI47
aI47
aI47
aI47
aI47
aI47
aI47
aI47
aI47
aI47
aI47
aI47
aI47
aI47
aI47
aI47
aI47
aI47
aI47
aI47
aI47
aI47
aI47
aI47
aI47
aI47
aI47
aI47
aI47
aI47
aI47
aI47
aI47
aI47
aI47
aI47
aI47
aI47
aI47
aI47
aI47
aI47
aI47
aI47
aI47
aI47
aI47
aI48
aI49
aI50
aI51
aI51
aI51
aI51
aI51
aI51
aI51
aI51
aI51
aI51
aI51
aI51
aI51
aI51
aI51
aI51
aI51
aI51
aI51
aI51
aI51
aI51
aI51
aI51
aI51
aI51
aI51
aI51
aI51
aI51
aI51
aI51
aI51
aI51
aI51
aI51
aI51
aI51
aI51
aI51
aI51
aI51
aI51
aI51
aI52
aI52
aI52
aI52
aI52
aI52
aI52
aI52
aI52
aI52
aI52
aI52
aI52
aI52
aI52
aI52
aI52
aI52
aI52
aI52
aI52
aI52
aI52
aI52
aI52
aI52
aI52
aI52
aI52
aI52
aI52
aI52
aI52
aI52
aI52
aI52
aI52
aI52
aI52
aI52
aI52
aI52
aI52
aI52
aI52
aI52
aI52
aI52
aI52
aI53
aI54
aI54
aI54
aI54
aI54
aI54
aI55
aI55
aI55
aI55
aI55
aI56
aI56
aI56
aI56
aI56
aI56
aI56
aI56
aI56
aI56
aI56
aI56
aI56
aI56
aI56
aI56
aI56
aI56
aI56
aI56
aI56
aI56
aI56
aI56
aI56
aI56
aI56
aI56
aI57
aI57
aI57
aI57
aI57
aI57
aI57
aI57
aI57
aI57
aI57
aI57
aI57
aI57
aI57
aI57
aI57
aI57
aI57
aI57
aI57
aI57
aI57
aI57
aI57
aI57
aI57
aI57
aI57
aI57
aI57
aI57
aI57
aI57
aI57
aI58
aI58
aI58
aI58
aI58
aI58
aI58
aI58
aI58
aI58
aI58
aI58
aI58
aI58
aI58
aI58
aI58
aI58
aI58
aI59
aI60
aI60
aI60
aI60
aI60
aI60
aI60
aI60
aI60
aI60
aI60
aI60
aI60
aI60
aI60
aI60
aI60
aI60
aI60
aI60
aI60
aI60
aI60
aI60
aI60
aI60
aI60
aI60
aI60
aI60
aI60
aI60
aI60
aI60
aI60
aI60
aI60
aI60
aI60
aI60
aI60
aI60
aI60
aI60
aI60
aI60
aI60
aI60
aI60
aI60
aI60
aI60
aI60
aI60
aI61
aI61
aI61
aI61
aI61
aI61
aI61
aI61
aI61
aI61
aI61
aI61
aI61
aI61
aI61
aI61
aI61
aI61
aI61
aI61
aI61
aI61
aI61
aI61
aI61
aI61
aI61
aI61
aI61
aI61
aI61
aI61
aI61
aI61
aI61
aI61
aI61
aI61
aI61
aI61
aI61
aI61
aI61
aI61
aI62
aI62
aI62
aI62
aI63
aI63
aI63
aI63
aI63
aI63
aI63
aI63
aI63
aI63
aI63
aI63
aI63
aI63
aI63
aI63
aI63
aI63
aI63
aI63
aI63
aI63
aI63
aI63
aI63
aI63
aI63
aI63
aI63
aI63
aI63
aI63
aI63
aI63
aI63
aI63
aI63
aI63
aI63
aI63
aI63
aI63
aI63
aI63
aI63
aI63
aI63
aI63
aI63
aI63
aI63
aI63
aI63
aI63
aI63
aI63
aI63
aI63
aI63
aI63
aI63
aI63
aI63
aI63
aI63
aI63
aI63
aI63
aI63
aI63
aI63
aI63
aI63
aI63
aI63
aI63
aI63
aI63
aI63
aI63
aI63
aI63
aI63
aI63
aI63
aI63
aI63
aI63
aI63
aI63
aI63
aI63
aI63
aI63
aI63
aI63
aI63
aI63
aI63
aI63
aI63
aI63
aI63
aI63
aI63
aI63
aI63
aI63
aI63
aI63
aI63
aI63
aI63
aI63
aI63
aI63
aI63
aI63
aI63
aI63
aI63
aI63
aI63
aI63
aI63
aI63
aI63
aI63
aI63
aI63
aI63
aI63
aI63
aI63
aI63
aI63
aI63
aI63
aI63
aI63
aI63
aI63
aI64
aI65
aI65
aI65
aI65
aI65
aI65
aI65
aI65
aI65
aI65
aI65
aI65
aI65
aI65
aI65
aI65
aI65
aI65
aI65
aI65
aI65
aI65
aI65
aI65
aI65
aI65
aI65
aI65
aI65
aI65
aI65
aI65
aI65
aI65
aI65
aI65
aI65
aI65
aI65
aI65
aI65
aI65
aI65
aI65
aI65
aI65
aI66
aI66
aI66
aI66
aI66
aI66
aI66
aI66
aI66
aI66
aI66
aI66
aI66
aI66
aI66
aI66
aI66
aI66
aI66
aI66
aI66
aI66
aI66
as.