(dp0
S'successes'
p1
(lp2
I0
aI0
aI0
aI0
aI0
aI0
aI0
aI0
aI0
aI0
aI0
aI0
aI0
aI0
aI0
aI0
aI0
aI0
aI0
aI0
aI0
aI0
aI0
aI0
aI0
aI0
aI0
aI0
aI0
aI0
aI0
aI0
aI0
aI0
aI0
aI1
aI0
aI0
aI0
aI0
aI0
aI0
aI0
aI0
aI0
aI0
aI0
aI0
aI0
aI0
aI0
aI0
aI0
aI0
aI1
aI0
aI0
aI0
aI0
aI0
aI0
aI1
aI0
aI0
aI0
aI0
aI0
aI0
aI1
aI0
aI0
aI0
aI0
aI0
aI0
aI0
aI0
aI0
aI0
aI0
aI0
aI0
aI0
aI0
aI0
aI0
aI0
aI0
aI0
aI1
aI0
aI0
aI0
aI0
aI0
aI0
aI0
aI0
aI0
aI0
aI0
aI0
aI0
aI0
aI0
aI0
aI0
aI0
aI0
aI0
aI1
aI0
aI0
aI0
aI0
aI0
aI0
aI0
aI1
aI0
aI0
aI0
aI0
aI0
aI0
aI0
aI0
aI0
aI0
aI0
aI0
aI0
aI0
aI0
aI0
aI0
aI0
aI0
aI0
aI0
aI1
aI0
aI0
aI0
aI0
aI0
aI0
aI0
aI0
aI0
aI0
aI0
aI0
aI0
aI0
aI0
aI1
aI0
aI0
aI0
aI0
aI0
aI0
aI0
aI0
aI0
aI0
aI1
aI0
aI0
aI0
aI0
aI0
aI0
aI0
aI0
aI0
aI1
aI0
aI0
aI0
aI0
aI0
aI0
aI0
aI0
aI0
aI0
aI0
aI0
aI1
aI0
aI0
aI0
aI0
aI0
aI0
aI0
aI0
aI0
aI1
aI0
aI0
aI0
aI0
aI0
aI0
aI0
aI0
aI0
aI0
aI0
aI0
aI1
aI0
aI0
aI0
aI0
aI0
aI0
aI0
aI0
aI0
aI0
aI1
aI0
aI0
aI0
aI0
aI0
aI0
aI0
aI0
aI0
aI0
aI1
aI0
aI0
aI0
aI1
aI0
aI0
aI0
aI0
aI0
aI0
aI0
aI0
aI0
aI1
aI0
aI0
aI0
aI0
aI0
aI0
aI0
aI0
aI0
aI0
aI0
aI1
aI0
aI0
aI0
aI0
aI0
aI0
aI0
aI0
aI0
aI0
aI0
aI0
aI1
aI0
aI0
aI0
aI0
aI0
aI0
aI1
aI0
aI0
aI0
aI0
aI0
aI0
aI0
aI0
aI0
aI0
aI1
aI0
aI0
aI0
aI0
aI0
aI0
aI0
aI1
aI0
aI0
aI0
aI0
aI0
aI0
aI0
aI0
aI0
aI0
aI0
aI0
aI0
aI1
aI0
aI0
aI0
aI0
aI0
aI0
aI0
aI0
aI0
aI0
aI0
aI0
aI0
aI0
aI0
aI0
aI0
aI0
aI0
aI0
aI0
aI0
aI0
aI0
aI1
aI0
aI0
aI0
aI0
aI0
aI0
aI0
aI0
aI0
aI0
aI0
aI0
aI0
aI0
aI0
aI1
aI0
aI0
aI0
aI0
aI0
aI0
aI0
aI0
aI0
aI0
aI0
aI0
aI0
aI0
aI0
aI0
aI0
aI0
aI0
aI0
aI0
aI0
aI0
aI0
aI1
aI0
aI0
aI0
aI0
aI0
aI0
aI0
aI0
aI0
aI0
aI0
aI0
aI0
aI0
aI0
aI0
aI0
aI0
aI0
aI0
aI0
aI1
aI0
aI0
aI0
aI0
aI0
aI0
aI0
aI1
aI0
aI0
aI0
aI0
aI0
aI0
aI0
aI0
aI1
aI0
aI0
aI0
aI0
aI0
aI0
aI0
aI0
aI0
aI0
aI0
aI0
aI0
aI1
aI0
aI0
aI0
aI0
aI0
aI1
aI0
aI0
aI0
aI0
aI0
aI0
aI0
aI0
aI0
aI1
aI0
aI0
aI0
aI0
aI0
aI0
aI0
aI0
aI0
aI0
aI1
aI0
aI0
aI0
aI0
aI0
aI0
aI0
aI0
aI0
aI0
aI0
aI0
aI0
aI0
aI0
aI0
aI0
aI0
aI0
aI0
aI1
aI0
aI0
aI0
aI0
aI0
aI0
aI0
aI0
aI0
aI0
aI1
aI0
aI0
aI0
aI0
aI0
aI0
aI0
aI0
aI1
aI0
aI0
aI0
aI0
aI0
aI0
aI0
aI0
aI0
aI0
aI1
aI0
aI0
aI0
aI1
aI0
aI0
aI0
aI0
aI0
aI0
aI1
aI0
aI0
aI0
aI0
aI0
aI0
aI0
aI0
aI0
aI0
aI0
aI0
aI1
aI0
aI0
aI0
aI0
aI0
aI0
aI0
aI0
aI0
aI0
aI0
aI1
aI0
aI0
aI0
aI0
aI0
aI0
aI1
aI0
aI0
aI0
aI0
aI0
aI0
aI0
aI0
aI0
aI0
aI0
aI0
aI0
aI0
aI0
aI0
aI1
aI0
aI0
aI0
aI0
aI0
aI0
aI0
aI0
aI0
aI0
aI0
aI0
aI0
aI0
aI0
aI0
aI1
aI0
aI0
aI0
aI0
aI0
aI0
aI0
aI0
aI0
aI0
aI0
aI0
aI0
aI1
aI0
aI0
aI0
aI0
aI0
aI0
aI0
aI0
aI0
aI0
aI0
aI0
aI0
aI0
aI0
aI1
aI0
aI0
aI0
aI0
aI0
aI0
aI0
aI0
aI0
aI0
aI0
aI0
aI0
aI0
aI0
aI0
aI1
aI0
aI0
aI0
aI0
aI0
aI0
aI0
aI0
aI0
aI0
aI0
aI0
aI0
aI0
aI0
aI1
aI0
aI0
aI0
aI0
aI0
aI0
aI0
aI0
aI0
aI1
aI0
aI0
aI0
aI0
aI0
aI0
aI0
aI1
aI0
aI0
aI0
aI0
aI0
aI0
aI0
aI0
aI0
aI0
aI1
aI0
aI0
aI0
aI0
aI0
aI0
aI0
aI0
aI1
aI0
aI0
aI0
aI0
aI0
aI0
aI0
aI0
aI1
aI0
aI0
aI0
aI0
aI0
aI0
aI0
aI0
aI0
aI0
aI0
aI0
aI0
aI0
aI0
aI0
aI0
aI1
aI0
aI0
aI0
aI0
aI0
aI0
aI0
aI0
aI0
aI0
aI0
aI0
aI0
aI0
aI0
aI0
aI0
aI0
aI0
aI0
aI0
aI0
aI0
aI1
aI0
aI0
aI0
aI0
aI0
aI0
aI0
aI0
aI1
aI0
aI0
aI0
aI0
aI0
aI0
aI0
aI0
aI0
aI0
aI1
aI0
aI0
aI0
aI1
aI0
aI0
aI0
aI0
aI0
aI0
aI0
aI0
aI1
aI0
aI0
aI0
aI0
aI0
aI0
aI0
aI0
aI0
aI0
aI0
aI0
aI0
aI0
aI0
aI0
aI0
aI0
aI1
aI0
aI0
aI0
aI0
aI0
aI0
aI0
aI0
aI0
aI0
aI0
aI0
aI0
aI0
aI1
aI0
aI0
aI0
aI0
aI0
aI0
aI0
aI0
aI0
aI0
aI0
aI0
aI1
aI0
aI0
aI0
aI0
aI0
aI0
aI0
aI0
aI0
aI0
aI0
aI0
aI0
aI0
aI1
aI0
aI0
aI0
aI0
aI0
aI0
aI0
aI0
aI0
aI0
aI0
aI0
aI0
aI1
aI0
aI0
aI0
aI1
aI0
aI0
aI0
aI0
aI0
aI0
aI0
aI0
aI0
aI0
aI0
aI0
aI0
aI0
aI1
aI0
aI0
aI0
aI0
aI0
aI0
aI0
aI0
aI0
aI0
aI0
aI0
aI0
aI0
aI0
aI0
aI0
aI0
aI0
aI0
aI0
aI0
aI0
aI0
aI1
aI0
aI0
aI0
aI0
aI0
aI0
aI0
aI0
aI0
aI0
aI0
aI1
aI0
aI0
aI0
aI0
aI0
aI0
aI0
aI1
aI0
aI0
aI0
aI0
aI0
aI0
aI0
aI0
aI0
aI0
aI0
aI0
aI0
aI0
aI0
aI0
aI0
aI0
aI0
aI1
aI0
aI0
aI0
aI0
aI0
aI0
aI0
aI0
aI0
aI0
aI0
aI0
aI0
aI1
aI0
aI0
aI0
aI0
aI1
aI0
aI0
aI0
aI0
aI0
aI0
aI0
aI0
aI0
aI0
aI0
aI1
aI0
aI0
aI0
aI0
aI0
aI0
aI0
aI0
aI0
aI0
aI0
aI1
aI0
aI0
aI0
aI0
aI0
aI0
aI1
aI0
aI0
aI0
aI0
aI0
aI0
aI0
aI1
aI0
aI0
aI0
aI0
aI0
aI0
aI0
aI1
aI0
aI0
aI0
aI0
aI0
aI0
aI0
aI0
aI0
aI0
aI0
aI0
aI0
aI0
aI0
aI0
aI0
aI0
aI0
aI0
aI1
aI0
aI0
aI0
aI0
aI0
aI0
aI0
aI0
aI0
aI0
aI0
aI0
aI0
aI0
aI0
aI0
aI0
aI0
aI0
aI0
aI0
aI0
aI0
aI0
aI0
aI0
aI0
aI0
aI0
aI0
aI0
aI0
aI0
aI0
aI0
aI0
aI0
aI0
aI0
aI0
aI0
aI0
aI0
aI0
aI0
aI0
aI0
aI0
aI0
aI0
aI0
aI0
aI0
aI0
aI0
aI0
aI1
aI0
aI0
aI0
aI0
aI0
aI0
aI1
aI0
aI0
aI0
aI0
aI0
aI0
aI0
aI0
aI0
aI0
aI1
aI0
aI0
aI0
aI0
aI0
aI0
aI0
aI0
aI0
aI0
aI0
aI0
aI0
aI0
aI0
aI0
aI0
aI0
aI0
aI0
aI0
aI0
aI1
aI0
aI0
aI0
aI0
aI0
aI0
aI1
aI0
aI0
aI0
aI0
aI0
aI0
aI0
aI0
aI0
aI0
aI1
aI0
aI0
aI0
aI0
aI0
aI1
aI0
aI0
aI0
aI0
aI0
aI0
aI0
aI0
aI1
aI0
aI0
aI0
aI0
aI0
aI0
aI0
aI0
aI0
aI0
aI0
aI0
aI0
aI0
aI0
aI0
aI0
aI0
aI0
aI1
aI0
aI0
aI0
aI0
aI0
aI0
aI0
aI1
aI0
aI0
aI0
aI0
aI0
aI0
aI0
aI0
aI0
aI0
aI0
aI0
aI0
aI0
aI0
aI0
aI0
aI0
aI1
aI0
aI0
aI0
aI0
aI0
aI0
aI1
aI0
aI0
aI0
aI0
aI0
aI1
aI0
aI0
aI0
aI0
aI0
aI0
aI0
aI0
aI0
aI0
aI0
aI0
aI0
aI0
aI1
aI0
aI0
aI0
aI0
aI0
aI0
aI0
aI0
aI0
aI0
aI0
aI0
aI1
aI0
aI0
aI0
aI0
aI0
aI0
aI0
aI0
aI0
aI0
aI0
aI0
aI0
aI0
aI0
aI0
aI1
aI0
aI0
aI0
aI0
aI1
aI0
aI0
aI0
aI0
aI0
aI0
aI0
aI0
aI0
aI0
aI0
aI0
aI0
aI1
aI0
aI0
aI0
aI0
aI0
aI0
aI0
aI0
aI0
aI0
aI0
aI1
asS'qtables'
p3
(lp4
(dp5
((S'red'
p6
NS'left'
p7
NS'right'
p8
tp9
Ntp10
F0.0
s((g6
NNNg7
tp11
S'forward'
p12
tp13
F-1.0
s((g6
Ng7
Ng7
tp14
Ntp15
F0.0
s((g6
g8
NNg8
tp16
g7
tp17
F-1.0
s((S'green'
p18
g8
NNg7
tp19
g12
tp20
F-0.5
s((g6
g7
NNg7
tp21
g8
tp22
F-0.5
s((g18
Ng12
Ng12
tp23
g12
tp24
F2.9
s((g6
NNNg7
tp25
g8
tp26
F11.080586026736995
s((g18
NNg12
g7
tp27
g8
tp28
F-0.5
s((g18
NNg12
g12
tp29
g12
tp30
F2.0
s((g18
NNg8
g12
tp31
Ntp32
F0.0
s((g18
Ng7
Ng12
tp33
g12
tp34
F2.0
s((g18
Ng8
Ng7
tp35
g7
tp36
F12.0
s((g18
NNg12
g12
tp37
g8
tp38
F-0.5
s((g6
NNNg12
tp39
g7
tp40
F-1.0
s((g18
Ng7
Ng8
tp41
g12
tp42
F-0.5
s((g18
NNNg12
tp43
g7
tp44
F-0.5
s((g18
NNg12
g7
tp45
Ntp46
F0.0
s((g6
NNNg12
tp47
g12
tp48
F-1.0
s((g6
g8
NNg7
tp49
g7
tp50
F-1.0
s((g6
Ng7
Ng12
tp51
Ntp52
F0.0
s((g6
NNNg8
tp53
g12
tp54
F-1.0
s((g18
NNNg7
tp55
g7
tp56
F11.72886251446911
s((g6
NNNg7
tp57
g7
tp58
F-1.0
s((g6
NNg8
g12
tp59
g12
tp60
F-1.0
s((g18
NNNg12
tp61
g12
tp62
F11.9661751032766
s((g6
Ng7
Ng12
tp63
g12
tp64
F-1.0
s((g6
g8
NNg12
tp65
g12
tp66
F-1.0
s((g18
NNg12
g12
tp67
Ntp68
F0.0
s((g18
NNg12
g8
tp69
g12
tp70
F-0.5
s((g18
Ng12
Ng7
tp71
Ntp72
F0.0
s((g6
NNg7
g12
tp73
g12
tp74
F-1.0
s((g6
NNNg7
tp75
Ntp76
F0.0
s((g18
NNNg8
tp77
g7
tp78
F-0.5
s((g6
NNNg8
tp79
g7
tp80
F-1.0
s((g18
g12
NNg12
tp81
g12
tp82
F2.0
s((g18
NNg7
g12
tp83
g12
tp84
F12.4
s((g18
NNg8
g7
tp85
g7
tp86
F2.0
s((g6
NNg12
g12
tp87
Ntp88
F0.0
s((g18
NNg8
g12
tp89
g8
tp90
F-0.5
s((g18
Ng8
Ng12
tp91
g12
tp92
F2.9
s((g6
NNg8
g12
tp93
Ntp94
F0.0
s((g18
NNNg12
tp95
g8
tp96
F-0.5
s((g6
g12
NNg12
tp97
g7
tp98
F-1.0
s((g18
g7
NNg12
tp99
g12
tp100
F6.9084606682908625
s((g18
NNg8
g12
tp101
g7
tp102
F-0.5
s((g18
NNNg8
tp103
Ntp104
F0.0
s((g6
Ng12
Ng7
tp105
g12
tp106
F-1.0
s((g6
g7
NNg12
tp107
Ntp108
F0.0
s((g6
g12
NNg12
tp109
Ntp110
F0.0
s((g6
NNNg12
tp111
Ntp112
F0.0
s((g6
NNNg12
tp113
g8
tp114
F10.740120066175358
s((g18
g7
NNg7
tp115
g12
tp116
F-0.5
s((g6
NNNg8
tp117
Ntp118
F0.0
s((g18
NNNg8
tp119
g8
tp120
F13.575224108121809
s((g6
Ng8
Ng12
tp121
Ntp122
F0.0
s((g6
NNg7
g7
tp123
g12
tp124
F-1.0
s((g18
g7
NNg12
tp125
g7
tp126
F-0.5
s((g6
NNg7
g12
tp127
Ntp128
F0.0
s((g18
g7
NNg8
tp129
g12
tp130
F-0.5
s((g6
NNNg8
tp131
g8
tp132
F13.216851966140684
s((g6
g7
NNg12
tp133
g12
tp134
F-1.0
s((g18
NNg7
g8
tp135
g8
tp136
F2.0
s((g18
NNg8
g12
tp137
g12
tp138
F12.0
sag5
ag5
ag5
ag5
ag5
ag5
ag5
ag5
ag5
ag5
ag5
ag5
ag5
ag5
ag5
ag5
ag5
ag5
ag5
ag5
ag5
ag5
ag5
ag5
ag5
ag5
ag5
ag5
ag5
ag5
ag5
ag5
ag5
ag5
ag5
ag5
ag5
ag5
ag5
ag5
ag5
ag5
ag5
ag5
ag5
ag5
ag5
ag5
ag5
ag5
ag5
ag5
ag5
ag5
ag5
ag5
ag5
ag5
ag5
ag5
ag5
ag5
ag5
ag5
ag5
ag5
ag5
ag5
ag5
ag5
ag5
ag5
ag5
ag5
ag5
ag5
ag5
ag5
ag5
ag5
ag5
ag5
ag5
ag5
ag5
ag5
ag5
ag5
ag5
ag5
ag5
ag5
ag5
ag5
ag5
ag5
ag5
ag5
ag5
ag5
ag5
ag5
ag5
ag5
ag5
ag5
ag5
ag5
ag5
ag5
ag5
ag5
ag5
ag5
ag5
ag5
ag5
ag5
ag5
ag5
ag5
ag5
ag5
ag5
ag5
ag5
ag5
ag5
ag5
ag5
ag5
ag5
ag5
ag5
ag5
ag5
ag5
ag5
ag5
ag5
ag5
ag5
ag5
ag5
ag5
ag5
ag5
ag5
ag5
ag5
ag5
ag5
ag5
ag5
ag5
ag5
ag5
ag5
ag5
ag5
ag5
ag5
ag5
ag5
ag5
ag5
ag5
ag5
ag5
ag5
ag5
ag5
ag5
ag5
ag5
ag5
ag5
ag5
ag5
ag5
ag5
ag5
ag5
ag5
ag5
ag5
ag5
ag5
ag5
ag5
ag5
ag5
ag5
ag5
ag5
ag5
ag5
ag5
ag5
ag5
ag5
ag5
ag5
ag5
ag5
ag5
ag5
ag5
ag5
ag5
ag5
ag5
ag5
ag5
ag5
ag5
ag5
ag5
ag5
ag5
ag5
ag5
ag5
ag5
ag5
ag5
ag5
ag5
ag5
ag5
ag5
ag5
ag5
ag5
ag5
ag5
ag5
ag5
ag5
ag5
ag5
ag5
ag5
ag5
ag5
ag5
ag5
ag5
ag5
ag5
ag5
ag5
ag5
ag5
ag5
ag5
ag5
ag5
ag5
ag5
ag5
ag5
ag5
ag5
ag5
ag5
ag5
ag5
ag5
ag5
ag5
ag5
ag5
ag5
ag5
ag5
ag5
ag5
ag5
ag5
ag5
ag5
ag5
ag5
ag5
ag5
ag5
ag5
ag5
ag5
ag5
ag5
ag5
ag5
ag5
ag5
ag5
ag5
ag5
ag5
ag5
ag5
ag5
ag5
ag5
ag5
ag5
ag5
ag5
ag5
ag5
ag5
ag5
ag5
ag5
ag5
ag5
ag5
ag5
ag5
ag5
ag5
ag5
ag5
ag5
ag5
ag5
ag5
ag5
ag5
ag5
ag5
ag5
ag5
ag5
ag5
ag5
ag5
ag5
ag5
ag5
ag5
ag5
ag5
ag5
ag5
ag5
ag5
ag5
ag5
ag5
ag5
ag5
ag5
ag5
ag5
ag5
ag5
ag5
ag5
ag5
ag5
ag5
ag5
ag5
ag5
ag5
ag5
ag5
ag5
ag5
ag5
ag5
ag5
ag5
ag5
ag5
ag5
ag5
ag5
ag5
ag5
ag5
ag5
ag5
ag5
ag5
ag5
ag5
ag5
ag5
ag5
ag5
ag5
ag5
ag5
ag5
ag5
ag5
ag5
ag5
ag5
ag5
ag5
ag5
ag5
ag5
ag5
ag5
ag5
ag5
ag5
ag5
ag5
ag5
ag5
ag5
ag5
ag5
ag5
ag5
ag5
ag5
ag5
ag5
ag5
ag5
ag5
ag5
ag5
ag5
ag5
ag5
ag5
ag5
ag5
ag5
ag5
ag5
ag5
ag5
ag5
ag5
ag5
ag5
ag5
ag5
ag5
ag5
ag5
ag5
ag5
ag5
ag5
ag5
ag5
ag5
ag5
ag5
ag5
ag5
ag5
ag5
ag5
ag5
ag5
ag5
ag5
ag5
ag5
ag5
ag5
ag5
ag5
ag5
ag5
ag5
ag5
ag5
ag5
ag5
ag5
ag5
ag5
ag5
ag5
ag5
ag5
ag5
ag5
ag5
ag5
ag5
ag5
ag5
ag5
ag5
ag5
ag5
ag5
ag5
ag5
ag5
ag5
ag5
ag5
ag5
ag5
ag5
ag5
ag5
ag5
ag5
ag5
ag5
ag5
ag5
ag5
ag5
ag5
ag5
ag5
ag5
ag5
ag5
ag5
ag5
ag5
ag5
ag5
ag5
ag5
ag5
ag5
ag5
ag5
ag5
ag5
ag5
ag5
ag5
ag5
ag5
ag5
ag5
ag5
ag5
ag5
ag5
ag5
ag5
ag5
ag5
ag5
ag5
ag5
ag5
ag5
ag5
ag5
ag5
ag5
ag5
ag5
ag5
ag5
ag5
ag5
ag5
ag5
ag5
ag5
ag5
ag5
ag5
ag5
ag5
ag5
ag5
ag5
ag5
ag5
ag5
ag5
ag5
ag5
ag5
ag5
ag5
ag5
ag5
ag5
ag5
ag5
ag5
ag5
ag5
ag5
ag5
ag5
ag5
ag5
ag5
ag5
ag5
ag5
ag5
ag5
ag5
ag5
ag5
ag5
ag5
ag5
ag5
ag5
ag5
ag5
ag5
ag5
ag5
ag5
ag5
ag5
ag5
ag5
ag5
ag5
ag5
ag5
ag5
ag5
ag5
ag5
ag5
ag5
ag5
ag5
ag5
ag5
ag5
ag5
ag5
ag5
ag5
ag5
ag5
ag5
ag5
ag5
ag5
ag5
ag5
ag5
ag5
ag5
ag5
ag5
ag5
ag5
ag5
ag5
ag5
ag5
ag5
ag5
ag5
ag5
ag5
ag5
ag5
ag5
ag5
ag5
ag5
ag5
ag5
ag5
ag5
ag5
ag5
ag5
ag5
ag5
ag5
ag5
ag5
ag5
ag5
ag5
ag5
ag5
ag5
ag5
ag5
ag5
ag5
ag5
ag5
ag5
ag5
ag5
ag5
ag5
ag5
ag5
ag5
ag5
ag5
ag5
ag5
ag5
ag5
ag5
ag5
ag5
ag5
ag5
ag5
ag5
ag5
ag5
ag5
ag5
ag5
ag5
ag5
ag5
ag5
ag5
ag5
ag5
ag5
ag5
ag5
ag5
ag5
ag5
ag5
ag5
ag5
ag5
ag5
ag5
ag5
ag5
ag5
ag5
ag5
ag5
ag5
ag5
ag5
ag5
ag5
ag5
ag5
ag5
ag5
ag5
ag5
ag5
ag5
ag5
ag5
ag5
ag5
ag5
ag5
ag5
ag5
ag5
ag5
ag5
ag5
ag5
ag5
ag5
ag5
ag5
ag5
ag5
ag5
ag5
ag5
ag5
ag5
ag5
ag5
ag5
ag5
ag5
ag5
ag5
ag5
ag5
ag5
ag5
ag5
ag5
ag5
ag5
ag5
ag5
ag5
ag5
ag5
ag5
ag5
ag5
ag5
ag5
ag5
ag5
ag5
ag5
ag5
ag5
ag5
ag5
ag5
ag5
ag5
ag5
ag5
ag5
ag5
ag5
ag5
ag5
ag5
ag5
ag5
ag5
ag5
ag5
ag5
ag5
ag5
ag5
ag5
ag5
ag5
ag5
ag5
ag5
ag5
ag5
ag5
ag5
ag5
ag5
ag5
ag5
ag5
ag5
ag5
ag5
ag5
ag5
ag5
ag5
ag5
ag5
ag5
ag5
ag5
ag5
ag5
ag5
ag5
ag5
ag5
ag5
ag5
ag5
ag5
ag5
ag5
ag5
ag5
ag5
ag5
ag5
ag5
ag5
ag5
ag5
ag5
ag5
ag5
ag5
ag5
ag5
ag5
ag5
ag5
ag5
ag5
ag5
ag5
ag5
ag5
ag5
ag5
ag5
ag5
ag5
ag5
ag5
ag5
ag5
ag5
ag5
ag5
ag5
ag5
ag5
ag5
ag5
ag5
ag5
ag5
ag5
ag5
ag5
ag5
ag5
ag5
ag5
ag5
ag5
ag5
ag5
ag5
ag5
ag5
ag5
ag5
ag5
ag5
ag5
ag5
ag5
ag5
ag5
ag5
ag5
ag5
ag5
ag5
ag5
ag5
ag5
ag5
ag5
ag5
ag5
ag5
ag5
ag5
ag5
ag5
ag5
ag5
ag5
ag5
ag5
ag5
ag5
ag5
ag5
ag5
ag5
ag5
ag5
ag5
ag5
ag5
ag5
ag5
ag5
ag5
ag5
ag5
ag5
ag5
ag5
ag5
ag5
ag5
ag5
ag5
ag5
ag5
ag5
ag5
ag5
ag5
ag5
ag5
ag5
ag5
ag5
ag5
ag5
ag5
ag5
ag5
ag5
ag5
ag5
ag5
ag5
ag5
ag5
ag5
ag5
ag5
ag5
ag5
ag5
ag5
ag5
ag5
ag5
ag5
ag5
ag5
ag5
ag5
ag5
ag5
ag5
ag5
ag5
ag5
ag5
ag5
ag5
ag5
ag5
ag5
ag5
ag5
ag5
ag5
ag5
ag5
ag5
ag5
ag5
ag5
ag5
ag5
ag5
ag5
ag5
ag5
ag5
ag5
ag5
ag5
ag5
ag5
ag5
ag5
ag5
ag5
ag5
ag5
ag5
ag5
ag5
ag5
ag5
ag5
ag5
ag5
ag5
ag5
ag5
ag5
ag5
ag5
ag5
ag5
ag5
ag5
ag5
ag5
ag5
ag5
ag5
ag5
ag5
ag5
ag5
ag5
ag5
ag5
ag5
ag5
ag5
ag5
ag5
ag5
ag5
ag5
ag5
ag5
ag5
ag5
ag5
ag5
ag5
ag5
ag5
ag5
ag5
ag5
ag5
ag5
ag5
ag5
ag5
ag5
ag5
ag5
ag5
ag5
ag5
ag5
ag5
ag5
ag5
ag5
ag5
ag5
ag5
ag5
ag5
ag5
ag5
ag5
ag5
ag5
ag5
ag5
ag5
ag5
ag5
ag5
ag5
ag5
ag5
ag5
ag5
ag5
ag5
ag5
ag5
ag5
ag5
ag5
ag5
ag5
ag5
ag5
ag5
ag5
ag5
ag5
ag5
ag5
ag5
ag5
ag5
ag5
ag5
ag5
ag5
ag5
ag5
ag5
ag5
ag5
ag5
ag5
ag5
ag5
ag5
ag5
ag5
ag5
ag5
ag5
ag5
ag5
ag5
ag5
ag5
ag5
ag5
ag5
ag5
ag5
ag5
ag5
ag5
ag5
ag5
ag5
ag5
ag5
ag5
ag5
ag5
ag5
ag5
ag5
ag5
ag5
ag5
ag5
ag5
ag5
ag5
ag5
ag5
ag5
ag5
ag5
ag5
ag5
ag5
ag5
ag5
ag5
ag5
ag5
ag5
ag5
ag5
ag5
ag5
ag5
ag5
ag5
ag5
ag5
ag5
ag5
ag5
ag5
ag5
ag5
ag5
ag5
ag5
ag5
ag5
ag5
ag5
ag5
ag5
ag5
ag5
ag5
ag5
ag5
ag5
ag5
ag5
ag5
ag5
ag5
ag5
ag5
ag5
ag5
ag5
ag5
ag5
ag5
ag5
ag5
ag5
asS'lenq'
p139
(lp140
I1
aI2
aI3
aI3
aI4
aI5
aI5
aI6
aI6
aI6
aI7
aI8
aI9
aI9
aI10
aI11
aI12
aI12
aI13
aI13
aI14
aI14
aI14
aI14
aI14
aI15
aI15
aI16
aI16
aI16
aI17
aI17
aI17
aI17
aI17
aI17
aI18
aI19
aI20
aI20
aI21
aI21
aI21
aI21
aI21
aI21
aI21
aI21
aI21
aI21
aI21
aI21
aI21
aI21
aI21
aI21
aI21
aI21
aI21
aI21
aI21
aI21
aI21
aI21
aI21
aI21
aI21
aI21
aI21
aI21
aI21
aI21
aI21
aI21
aI21
aI21
aI21
aI21
aI21
aI21
aI21
aI21
aI21
aI21
aI21
aI21
aI21
aI21
aI21
aI21
aI21
aI21
aI21
aI21
aI21
aI21
aI21
aI21
aI21
aI21
aI21
aI21
aI21
aI21
aI21
aI21
aI21
aI21
aI21
aI21
aI21
aI22
aI23
aI23
aI23
aI23
aI23
aI23
aI23
aI23
aI23
aI23
aI23
aI23
aI23
aI23
aI23
aI23
aI23
aI23
aI23
aI23
aI23
aI23
aI23
aI23
aI23
aI23
aI23
aI23
aI23
aI23
aI23
aI23
aI23
aI23
aI23
aI23
aI23
aI24
aI24
aI24
aI24
aI24
aI24
aI24
aI24
aI24
aI25
aI26
aI26
aI26
aI26
aI26
aI26
aI26
aI26
aI26
aI26
aI27
aI27
aI27
aI27
aI27
aI27
aI27
aI27
aI27
aI27
aI27
aI27
aI27
aI27
aI27
aI27
aI27
aI27
aI27
aI27
aI27
aI27
aI27
aI27
aI27
aI27
aI27
aI27
aI27
aI27
aI27
aI27
aI27
aI27
aI27
aI27
aI27
aI27
aI27
aI27
aI27
aI27
aI27
aI27
aI27
aI27
aI27
aI27
aI27
aI27
aI27
aI27
aI27
aI28
aI29
aI29
aI29
aI29
aI29
aI29
aI29
aI29
aI29
aI29
aI29
aI29
aI29
aI29
aI29
aI29
aI29
aI30
aI30
aI30
aI30
aI30
aI30
aI30
aI30
aI30
aI30
aI30
aI30
aI30
aI30
aI31
aI31
aI31
aI31
aI31
aI31
aI31
aI31
aI31
aI31
aI31
aI31
aI31
aI31
aI32
aI32
aI32
aI32
aI32
aI32
aI32
aI32
aI32
aI32
aI32
aI32
aI32
aI32
aI32
aI32
aI32
aI32
aI32
aI32
aI32
aI32
aI32
aI32
aI32
aI32
aI32
aI32
aI32
aI32
aI32
aI32
aI32
aI32
aI32
aI32
aI32
aI32
aI32
aI32
aI32
aI32
aI32
aI32
aI32
aI32
aI32
aI32
aI32
aI32
aI32
aI32
aI32
aI32
aI32
aI32
aI32
aI32
aI32
aI33
aI34
aI34
aI34
aI34
aI34
aI34
aI34
aI34
aI35
aI35
aI35
aI35
aI35
aI35
aI35
aI35
aI35
aI35
aI35
aI35
aI35
aI35
aI35
aI35
aI35
aI35
aI35
aI35
aI35
aI35
aI35
aI35
aI35
aI35
aI35
aI35
aI35
aI35
aI35
aI35
aI35
aI35
aI35
aI35
aI35
aI35
aI35
aI35
aI35
aI35
aI35
aI35
aI35
aI35
aI35
aI35
aI35
aI35
aI35
aI35
aI35
aI35
aI35
aI35
aI35
aI35
aI35
aI35
aI35
aI35
aI36
aI36
aI36
aI36
aI36
aI36
aI37
aI37
aI38
aI38
aI39
aI39
aI39
aI39
aI39
aI39
aI39
aI39
aI39
aI39
aI39
aI39
aI40
aI40
aI40
aI40
aI40
aI40
aI40
aI40
aI40
aI40
aI40
aI40
aI40
aI40
aI40
aI40
aI40
aI40
aI40
aI40
aI40
aI40
aI40
aI40
aI40
aI40
aI40
aI40
aI40
aI40
aI40
aI40
aI40
aI40
aI40
aI41
aI42
aI42
aI43
aI43
aI43
aI43
aI43
aI43
aI43
aI43
aI43
aI44
aI44
aI44
aI44
aI44
aI44
aI44
aI44
aI44
aI44
aI44
aI44
aI44
aI44
aI44
aI44
aI44
aI44
aI44
aI44
aI44
aI44
aI44
aI44
aI44
aI44
aI44
aI44
aI44
aI44
aI44
aI44
aI44
aI44
aI44
aI44
aI44
aI44
aI44
aI45
aI45
aI45
aI45
aI45
aI45
aI45
aI45
aI45
aI45
aI45
aI45
aI45
aI45
aI45
aI45
aI45
aI45
aI45
aI45
aI45
aI45
aI45
aI45
aI45
aI45
aI45
aI45
aI45
aI45
aI45
aI45
aI45
aI45
aI45
aI45
aI45
aI45
aI45
aI45
aI45
aI46
aI46
aI46
aI46
aI46
aI47
aI47
aI47
aI47
aI47
aI47
aI47
aI47
aI47
aI47
aI47
aI47
aI47
aI47
aI47
aI47
aI47
aI47
aI47
aI47
aI47
aI47
aI47
aI47
aI47
aI47
aI47
aI47
aI47
aI47
aI47
aI48
aI48
aI48
aI48
aI48
aI48
aI48
aI48
aI48
aI48
aI48
aI48
aI48
aI48
aI48
aI48
aI48
aI48
aI48
aI48
aI49
aI49
aI49
aI49
aI49
aI49
aI49
aI49
aI49
aI49
aI49
aI49
aI49
aI49
aI49
aI49
aI49
aI49
aI49
aI49
aI49
aI49
aI49
aI50
aI50
aI50
aI50
aI50
aI50
aI50
aI50
aI50
aI51
aI52
aI52
aI52
aI52
aI52
aI52
aI52
aI52
aI52
aI52
aI52
aI52
aI52
aI52
aI52
aI52
aI52
aI52
aI52
aI52
aI52
aI52
aI52
aI52
aI52
aI52
aI52
aI52
aI52
aI52
aI52
aI52
aI52
aI52
aI52
aI52
aI52
aI52
aI52
aI52
aI52
aI52
aI52
aI52
aI52
aI52
aI52
aI52
aI52
aI52
aI52
aI52
aI52
aI52
aI52
aI52
aI52
aI52
aI52
aI52
aI52
aI52
aI52
aI52
aI52
aI52
aI52
aI52
aI52
aI52
aI53
aI53
aI53
aI53
aI53
aI53
aI53
aI53
aI53
aI53
aI53
aI53
aI53
aI53
aI53
aI53
aI53
aI53
aI53
aI53
aI53
aI53
aI53
aI53
aI53
aI53
aI53
aI53
aI53
aI53
aI53
aI53
aI53
aI53
aI53
aI53
aI53
aI54
aI54
aI54
aI54
aI54
aI54
aI54
aI54
aI54
aI54
aI54
aI54
aI55
aI55
aI55
aI55
aI55
aI55
aI55
aI55
aI55
aI55
aI55
aI55
aI55
aI55
aI55
aI55
aI55
aI55
aI55
aI55
aI55
aI55
aI55
aI55
aI55
aI55
aI55
aI55
aI55
aI55
aI55
aI55
aI55
aI55
aI55
aI55
aI55
aI55
aI55
aI55
aI55
aI55
aI55
aI55
aI55
aI55
aI55
aI55
aI55
aI55
aI55
aI55
aI55
aI55
aI55
aI55
aI55
aI55
aI55
aI55
aI55
aI55
aI55
aI55
aI55
aI55
aI55
aI55
aI55
aI55
aI55
aI55
aI55
aI55
aI55
aI55
aI55
aI55
aI55
aI55
aI55
aI55
aI55
aI55
aI55
aI55
aI55
aI55
aI55
aI55
aI55
aI55
aI55
aI55
aI55
aI55
aI55
aI55
aI55
aI55
aI55
aI55
aI55
aI55
aI55
aI55
aI55
aI55
aI55
aI55
aI55
aI55
aI55
aI55
aI55
aI55
aI55
aI55
aI55
aI55
aI55
aI55
aI55
aI55
aI55
aI55
aI55
aI55
aI55
aI55
aI55
aI55
aI55
aI55
aI55
aI56
aI56
aI56
aI56
aI56
aI56
aI56
aI56
aI56
aI56
aI56
aI56
aI56
aI56
aI56
aI56
aI56
aI56
aI56
aI56
aI56
aI56
aI56
aI56
aI56
aI56
aI56
aI56
aI56
aI56
aI56
aI56
aI56
aI56
aI56
aI56
aI56
aI56
aI56
aI56
aI56
aI56
aI56
aI56
aI56
aI56
aI56
aI56
aI56
aI56
aI56
aI56
aI56
aI56
aI56
aI56
aI56
aI56
aI56
aI56
aI57
aI57
aI57
aI57
aI57
aI57
aI57
aI57
aI57
aI57
aI57
aI57
aI57
aI57
aI57
aI57
aI57
aI57
aI57
aI57
aI57
aI57
aI57
aI57
aI57
aI57
aI57
aI57
aI57
aI57
aI57
aI57
aI57
aI57
aI57
aI57
aI57
aI57
aI57
aI57
aI57
aI57
aI57
aI57
aI57
aI57
aI57
aI57
aI57
aI57
aI57
aI57
aI57
aI57
aI57
aI57
aI57
aI57
aI58
aI58
aI58
aI58
aI58
aI58
aI58
aI59
aI59
aI59
aI59
aI59
aI59
aI59
aI59
aI59
aI59
aI59
aI59
aI59
aI59
aI59
aI59
aI59
aI59
aI59
aI59
aI59
aI59
aI59
aI59
aI59
aI59
aI59
aI59
aI59
aI59
aI59
aI59
aI59
aI59
aI59
aI59
aI59
aI59
aI59
aI59
aI59
aI59
aI59
aI59
aI59
aI59
aI59
aI59
aI59
aI59
aI60
aI60
aI60
aI60
aI60
aI60
aI60
aI60
aI60
aI60
aI60
aI60
aI60
aI60
aI60
aI60
aI60
aI60
aI60
aI60
aI60
aI60
aI60
aI60
aI60
aI60
aI60
aI60
aI60
aI60
aI60
aI60
aI60
aI60
aI60
aI60
aI60
aI60
aI60
aI60
aI60
aI60
aI60
aI60
aI60
aI60
aI60
aI60
aI60
aI60
aI60
aI60
aI60
aI60
aI60
aI60
aI60
aI60
aI60
aI60
aI60
aI61
aI61
aI62
aI62
aI62
aI62
aI62
aI62
aI62
aI62
aI62
aI62
aI62
aI62
aI62
aI62
aI62
aI62
aI62
aI62
aI62
aI62
aI62
aI62
aI62
aI62
aI62
aI62
aI62
aI62
aI62
aI62
aI62
aI62
aI62
aI62
aI62
aI62
aI62
aI62
aI62
aI62
aI62
aI62
aI62
aI62
aI62
aI62
aI62
aI62
aI62
aI62
aI62
aI62
aI62
aI62
aI62
aI62
aI62
aI62
aI62
aI62
aI62
aI62
aI62
aI62
aI62
aI62
aI63
aI63
aI63
aI63
aI63
aI63
aI63
aI63
aI63
aI63
aI63
aI63
aI63
aI63
aI63
aI63
aI63
aI63
aI63
aI63
aI63
aI63
aI63
aI63
aI63
aI63
aI63
aI63
aI63
aI63
aI63
aI63
aI63
aI63
aI63
aI63
aI63
aI63
aI63
aI63
aI63
aI63
aI63
aI63
aI63
aI63
aI63
aI63
aI63
aI63
aI63
aI63
aI63
aI63
aI63
aI63
aI64
aI64
aI64
aI64
aI64
aI64
aI64
aI64
aI64
aI64
aI64
aI64
aI64
aI64
aI64
aI64
aI64
aI64
aI64
aI64
aI64
aI64
aI64
aI64
aI64
aI64
aI64
aI64
aI64
aI64
aI64
aI64
aI64
aI64
aI64
aI64
aI64
aI64
aI64
as.