(dp0
S'successes'
p1
(lp2
I0
aI0
aI0
aI0
aI0
aI0
aI0
aI0
aI0
aI0
aI0
aI0
aI0
aI0
aI0
aI0
aI0
aI0
aI0
aI0
aI0
aI0
aI0
aI0
aI0
aI0
aI0
aI0
aI0
aI0
aI0
aI0
aI0
aI0
aI0
aI0
aI0
aI0
aI0
aI0
aI0
aI0
aI0
aI0
aI0
aI1
aI0
aI0
aI0
aI0
aI0
aI0
aI0
aI0
aI0
aI0
aI0
aI0
aI0
aI0
aI0
aI1
aI0
aI0
aI0
aI0
aI0
aI0
aI0
aI0
aI0
aI1
aI0
aI0
aI0
aI0
aI0
aI0
aI0
aI0
aI0
aI0
aI0
aI1
aI0
aI0
aI0
aI0
aI0
aI0
aI0
aI0
aI0
aI0
aI0
aI0
aI0
aI0
aI1
aI0
aI0
aI0
aI0
aI0
aI0
aI0
aI0
aI0
aI0
aI0
aI1
aI0
aI0
aI0
aI0
aI0
aI1
aI0
aI0
aI0
aI0
aI0
aI0
aI0
aI0
aI0
aI0
aI0
aI0
aI1
aI0
aI0
aI0
aI0
aI0
aI0
aI0
aI0
aI0
aI0
aI0
aI1
aI0
aI0
aI0
aI1
aI0
aI0
aI0
aI0
aI0
aI0
aI0
aI0
aI0
aI0
aI0
aI0
aI0
aI0
aI0
aI0
aI1
aI0
aI0
aI0
aI1
aI0
aI0
aI0
aI0
aI0
aI0
aI0
aI0
aI0
aI0
aI0
aI0
aI0
aI0
aI0
aI0
aI0
aI0
aI0
aI0
aI1
aI0
aI0
aI0
aI0
aI0
aI0
aI0
aI0
aI0
aI0
aI0
aI0
aI0
aI0
aI0
aI0
aI1
aI0
aI0
aI0
aI0
aI0
aI0
aI0
aI0
aI0
aI0
aI0
aI0
aI0
aI0
aI0
aI0
aI0
aI0
aI0
aI0
aI1
aI0
aI0
aI0
aI0
aI0
aI0
aI0
aI0
aI0
aI0
aI0
aI0
aI0
aI0
aI0
aI0
aI0
aI0
aI0
aI0
aI0
aI0
aI1
aI0
aI0
aI0
aI0
aI0
aI0
aI0
aI0
aI0
aI0
aI0
aI0
aI0
aI1
aI0
aI0
aI0
aI0
aI0
aI0
aI0
aI0
aI0
aI1
aI0
aI0
aI0
aI0
aI0
aI0
aI0
aI0
aI0
aI0
aI0
aI0
aI1
aI0
aI0
aI0
aI0
aI0
aI0
aI0
aI0
aI0
aI0
aI0
aI0
aI0
aI0
aI0
aI0
aI0
aI0
aI0
aI0
aI0
aI0
aI0
aI0
aI1
aI0
aI0
aI0
aI0
aI0
aI0
aI0
aI0
aI0
aI0
aI0
aI0
aI0
aI0
aI0
aI0
aI0
aI0
aI0
aI0
aI0
aI1
aI0
aI0
aI0
aI0
aI0
aI0
aI0
aI0
aI1
aI0
aI0
aI0
aI0
aI0
aI0
aI0
aI0
aI0
aI0
aI1
aI0
aI0
aI0
aI0
aI0
aI0
aI0
aI0
aI0
aI0
aI0
aI0
aI0
aI0
aI0
aI0
aI0
aI0
aI0
aI0
aI0
aI0
aI0
aI0
aI0
aI0
aI0
aI1
aI0
aI0
aI0
aI0
aI0
aI0
aI0
aI0
aI0
aI0
aI0
aI0
aI1
aI0
aI0
aI0
aI1
aI0
aI0
aI0
aI1
aI0
aI0
aI0
aI0
aI0
aI0
aI0
aI0
aI0
aI0
aI0
aI0
aI1
aI0
aI0
aI0
aI0
aI1
aI0
aI0
aI0
aI0
aI0
aI0
aI0
aI0
aI0
aI0
aI1
aI0
aI0
aI0
aI0
aI0
aI0
aI0
aI0
aI0
aI0
aI0
aI0
aI0
aI0
aI0
aI0
aI1
aI0
aI0
aI0
aI0
aI0
aI0
aI0
aI0
aI0
aI0
aI0
aI0
aI0
aI0
aI0
aI1
aI0
aI0
aI0
aI0
aI0
aI1
aI0
aI0
aI0
aI1
aI0
aI0
aI0
aI0
aI0
aI1
aI0
aI0
aI0
aI0
aI0
aI0
aI0
aI0
aI0
aI0
aI0
aI0
aI1
aI0
aI0
aI0
aI0
aI0
aI0
aI0
aI0
aI0
aI0
aI0
aI0
aI0
aI0
aI0
aI1
aI0
aI0
aI0
aI0
aI0
aI0
aI0
aI0
aI0
aI0
aI0
aI0
aI0
aI0
aI0
aI0
aI0
aI0
aI0
aI0
aI0
aI0
aI1
aI0
aI0
aI0
aI0
aI0
aI0
aI0
aI0
aI0
aI0
aI0
aI0
aI1
aI0
aI0
aI0
aI0
aI0
aI0
aI0
aI0
aI0
aI0
aI0
aI0
aI0
aI0
aI0
aI0
aI0
aI0
aI0
aI0
aI0
aI0
aI0
aI0
aI0
aI0
aI0
aI0
aI0
aI0
aI1
aI0
aI0
aI0
aI0
aI0
aI0
aI0
aI0
aI0
aI1
aI0
aI0
aI0
aI0
aI0
aI0
aI0
aI0
aI0
aI0
aI0
aI0
aI0
aI0
aI0
aI0
aI0
aI1
aI0
aI0
aI0
aI0
aI0
aI0
aI0
aI0
aI0
aI0
aI0
aI1
aI0
aI0
aI0
aI0
aI0
aI1
aI0
aI0
aI0
aI0
aI0
aI0
aI0
aI0
aI1
aI0
aI0
aI0
aI0
aI0
aI0
aI0
aI0
aI0
aI0
aI0
aI0
aI0
aI0
aI0
aI0
aI0
aI1
aI0
aI0
aI0
aI0
aI0
aI0
aI0
aI0
aI0
aI0
aI0
aI1
aI0
aI0
aI0
aI0
aI0
aI0
aI0
aI0
aI0
aI0
aI0
aI0
aI0
aI0
aI0
aI0
aI0
aI0
aI0
aI0
aI1
aI0
aI0
aI0
aI0
aI0
aI0
aI0
aI0
aI0
aI0
aI0
aI0
aI0
aI1
aI0
aI0
aI0
aI0
aI0
aI0
aI0
aI0
aI0
aI1
aI0
aI0
aI0
aI0
aI0
aI0
aI0
aI0
aI0
aI0
aI0
aI0
aI1
aI0
aI0
aI0
aI0
aI1
aI0
aI0
aI0
aI0
aI0
aI1
aI0
aI0
aI0
aI0
aI0
aI0
aI0
aI0
aI0
aI0
aI0
aI0
aI0
aI0
aI0
aI0
aI0
aI0
aI0
aI0
aI0
aI0
aI0
aI0
aI0
aI0
aI0
aI0
aI0
aI1
aI0
aI0
aI0
aI0
aI0
aI1
aI0
aI0
aI0
aI0
aI0
aI0
aI0
aI0
aI0
aI0
aI0
aI0
aI0
aI0
aI0
aI1
aI0
aI0
aI0
aI0
aI0
aI0
aI0
aI0
aI0
aI0
aI0
aI0
aI0
aI0
aI0
aI0
aI0
aI0
aI0
aI0
aI0
aI1
aI0
aI0
aI0
aI0
aI0
aI0
aI0
aI0
aI0
aI0
aI0
aI0
aI1
aI0
aI0
aI0
aI0
aI0
aI0
aI0
aI0
aI0
aI1
aI0
aI0
aI0
aI0
aI0
aI0
aI0
aI0
aI0
aI0
aI1
aI0
aI0
aI0
aI0
aI0
aI1
aI0
aI0
aI0
aI0
aI0
aI0
aI0
aI0
aI1
aI0
aI0
aI0
aI0
aI0
aI0
aI1
aI0
aI0
aI0
aI0
aI0
aI0
aI0
aI0
aI0
aI0
aI0
aI0
aI0
aI0
aI0
aI0
aI0
aI1
aI0
aI0
aI0
aI0
aI0
aI0
aI0
aI1
aI0
aI0
aI0
aI0
aI0
aI0
aI0
aI0
aI0
aI0
aI0
aI0
aI0
aI0
aI0
aI1
aI0
aI0
aI0
aI1
aI0
aI0
aI0
aI0
aI0
aI0
aI0
aI0
aI0
aI0
aI0
aI0
aI0
aI0
aI0
aI0
aI0
aI0
aI0
aI0
aI1
aI0
aI0
aI0
aI0
aI0
aI0
aI0
aI1
aI0
aI0
aI0
aI0
aI0
aI0
aI1
aI0
aI0
aI0
aI0
aI0
aI0
aI0
aI0
aI0
aI0
aI0
aI0
aI0
aI0
aI0
aI1
aI0
aI0
aI0
aI0
aI0
aI0
aI0
aI0
aI0
aI0
aI0
aI0
aI0
aI0
aI0
aI0
aI0
aI0
aI0
aI0
aI0
aI0
aI0
aI0
aI0
aI0
aI0
aI0
aI0
aI0
aI0
aI0
aI0
aI0
aI0
aI0
aI0
aI0
aI0
aI0
aI0
aI0
aI0
aI0
aI0
aI0
aI0
aI0
aI0
aI0
aI1
aI0
aI0
aI0
aI0
aI0
aI0
aI0
aI0
aI0
aI0
aI0
aI0
aI1
aI0
aI0
aI0
aI0
aI0
aI0
aI0
aI0
aI0
aI0
aI0
aI0
aI1
aI0
aI0
aI0
aI0
aI0
aI0
aI0
aI0
aI0
aI0
aI0
aI0
aI0
aI0
aI1
aI0
aI0
aI0
aI0
aI0
aI0
aI0
aI0
aI0
aI0
aI0
aI0
aI0
aI0
aI0
aI0
aI1
aI0
aI0
aI0
aI0
aI0
aI0
aI0
aI0
aI0
aI0
aI1
aI0
aI0
aI0
aI0
aI0
aI0
aI0
aI0
aI0
aI0
aI0
aI0
aI0
aI0
aI0
aI1
aI0
aI0
aI0
aI0
aI0
aI0
aI1
aI0
aI0
aI0
aI0
aI0
aI1
aI0
aI0
aI0
aI0
aI0
aI0
aI0
aI0
aI0
aI0
aI0
aI0
aI0
aI0
aI1
aI0
aI0
aI0
aI0
aI0
aI0
aI0
aI0
aI0
aI1
aI0
aI0
aI0
aI0
aI0
aI0
aI0
aI0
aI0
aI0
aI0
aI0
aI0
aI0
aI0
aI0
aI0
aI0
aI0
aI0
aI0
aI0
aI0
aI0
aI0
aI1
aI0
aI0
aI0
aI0
aI0
aI0
aI0
aI0
aI0
aI0
aI0
aI0
aI0
aI1
aI0
aI0
aI0
aI0
aI0
aI0
aI1
aI0
aI0
aI0
aI0
aI0
aI0
aI0
aI0
aI0
aI0
aI0
aI0
aI0
aI0
aI0
aI0
aI0
aI0
aI0
aI0
aI0
aI0
aI0
aI0
aI0
aI1
aI0
aI0
aI0
aI0
aI0
aI0
aI0
aI0
aI0
aI1
aI0
aI0
aI0
aI0
aI0
aI0
aI0
aI0
aI0
aI0
aI0
aI0
aI1
aI0
aI0
aI0
aI0
aI0
aI0
aI0
aI1
aI0
aI0
aI0
aI0
aI0
aI0
aI0
aI0
aI0
aI0
aI0
aI0
aI0
aI0
aI0
aI0
aI0
aI0
aI0
aI0
aI1
aI0
aI0
aI0
aI0
aI0
aI0
aI0
aI0
aI0
aI0
aI0
aI0
aI0
aI0
aI0
aI1
aI0
aI0
aI0
aI0
aI0
aI0
aI1
aI0
aI0
aI0
aI0
aI0
aI0
aI0
aI0
aI0
aI0
aI0
aI0
aI0
aI0
aI0
aI0
aI0
aI0
aI0
aI0
aI0
aI0
aI0
aI0
aI1
aI0
aI0
aI0
aI0
aI0
aI0
aI0
aI0
aI0
aI0
aI0
aI0
aI0
aI0
aI0
aI1
aI0
aI0
aI0
aI0
aI0
aI1
aI0
aI0
aI0
aI0
aI0
aI0
aI0
aI0
aI0
aI0
aI0
aI0
aI0
aI1
aI0
aI0
aI0
aI0
aI0
aI0
aI0
aI0
aI0
aI0
aI0
aI0
aI0
aI0
aI0
aI0
aI1
aI0
aI0
aI0
aI0
aI0
aI0
aI0
aI0
aI0
aI0
aI0
aI0
aI0
aI0
aI0
aI0
aI0
aI0
aI0
aI0
aI0
aI1
asS'qtables'
p3
(lp4
(dp5
((S'green'
p6
NNS'left'
p7
S'forward'
p8
tp9
g7
tp10
F-0.05
s((S'red'
p11
NNNg7
tp12
g8
tp13
F-0.1
s((g6
NNg8
S'right'
p14
tp15
g7
tp16
F-0.05
s((g11
g7
NNg8
tp17
g7
tp18
F-0.1
s((g11
g7
NNg7
tp19
g14
tp20
F-0.039065168964075914
s((g6
Ng8
Ng8
tp21
g8
tp22
F0.2
s((g11
g7
NNg7
tp23
g8
tp24
F-0.1
s((g11
g8
NNg14
tp25
g8
tp26
F-0.1
s((g6
NNg8
g8
tp27
Ntp28
F0.0
s((g6
NNg14
g8
tp29
Ntp30
F0.0
s((g6
Ng7
Ng8
tp31
g8
tp32
F2.3628
s((g11
NNg14
g7
tp33
Ntp34
F0.0
s((g6
NNg8
g8
tp35
g14
tp36
F-0.05
s((g6
Ng8
Ng8
tp37
g14
tp38
F-0.05
s((g11
NNNg8
tp39
g7
tp40
F-0.1
s((g6
NNg7
g14
tp41
g8
tp42
F-0.05
s((g6
g7
NNg8
tp43
Ntp44
F0.0
s((g6
Ng8
Ng14
tp45
Ntp46
F0.0
s((g11
NNNg8
tp47
g8
tp48
F-0.1
s((g11
g8
NNg8
tp49
g14
tp50
F-0.07630884845837485
s((g11
NNg14
g8
tp51
g14
tp52
F-0.05
s((g11
g7
NNg8
tp53
g14
tp54
F-0.03683435699556713
s((g11
Ng7
Ng8
tp55
g7
tp56
F-0.1
s((g11
g8
NNg8
tp57
g8
tp58
F-0.1
s((g6
NNNg7
tp59
g7
tp60
F5.150898981757653
s((g6
Ng8
Ng8
tp61
g7
tp62
F-0.05
s((g11
NNNg7
tp63
g7
tp64
F-0.1
s((g6
NNNg8
tp65
g8
tp66
F3.253678181790518
s((g11
Ng7
Ng8
tp67
g8
tp68
F-0.1
s((g11
g14
NNg8
tp69
Ntp70
F0.0
s((g11
g8
NNg14
tp71
g14
tp72
F0.2
s((g6
g8
NNg8
tp73
Ntp74
F0.0
s((g6
Ng8
Ng14
tp75
g8
tp76
F-0.05
s((g11
NNg7
g8
tp77
g8
tp78
F-0.1
s((g11
NNNg7
tp79
Ntp80
F0.0
s((g11
NNNg14
tp81
g7
tp82
F-0.1
s((g6
g7
NNg8
tp83
g14
tp84
F-0.05
s((g11
NNNg7
tp85
g14
tp86
F-0.0912
s((g6
Ng7
Ng8
tp87
Ntp88
F0.0
s((g11
Ng8
Ng7
tp89
g14
tp90
F-0.1
s((g6
NNg8
g8
tp91
g8
tp92
F0.542
s((g6
NNg14
g8
tp93
g14
tp94
F-0.05
s((g6
NNg14
g8
tp95
g8
tp96
F0.2
s((g6
Ng7
Ng8
tp97
g7
tp98
F-0.05
s((g11
g8
NNg8
tp99
g7
tp100
F-0.1
s((g11
Ng14
Ng8
tp101
g14
tp102
F-0.05
s((g6
g7
NNg8
tp103
g8
tp104
F1.8200797184271194
s((g6
NNg14
g8
tp105
g7
tp106
F-0.05
s((g6
NNNg14
tp107
Ntp108
F0.0
s((g11
g7
NNg8
tp109
Ntp110
F0.0
s((g11
g8
NNg8
tp111
Ntp112
F0.0
s((g11
NNNg8
tp113
Ntp114
F0.0
s((g11
NNNg8
tp115
g14
tp116
F-0.093
s((g11
NNg8
g8
tp117
g14
tp118
F-0.05
s((g11
Ng8
Ng14
tp119
g8
tp120
F-0.1
s((g6
NNNg14
tp121
g14
tp122
F2.5571671561065585
s((g11
Ng7
Ng8
tp123
g14
tp124
F-0.05
s((g6
NNNg8
tp125
Ntp126
F0.0
s((g11
g7
NNg7
tp127
g7
tp128
F-0.1
s((g6
g7
NNg14
tp129
g8
tp130
F-0.010419489290553714
s((g6
NNg7
g8
tp131
Ntp132
F0.0
s((g11
NNNg14
tp133
g14
tp134
F2.5383820405455824
s((g11
g7
NNg8
tp135
g8
tp136
F-0.1
s((g6
NNg7
g8
tp137
g8
tp138
F0.2
sag5
ag5
ag5
ag5
ag5
ag5
ag5
ag5
ag5
ag5
ag5
ag5
ag5
ag5
ag5
ag5
ag5
ag5
ag5
ag5
ag5
ag5
ag5
ag5
ag5
ag5
ag5
ag5
ag5
ag5
ag5
ag5
ag5
ag5
ag5
ag5
ag5
ag5
ag5
ag5
ag5
ag5
ag5
ag5
ag5
ag5
ag5
ag5
ag5
ag5
ag5
ag5
ag5
ag5
ag5
ag5
ag5
ag5
ag5
ag5
ag5
ag5
ag5
ag5
ag5
ag5
ag5
ag5
ag5
ag5
ag5
ag5
ag5
ag5
ag5
ag5
ag5
ag5
ag5
ag5
ag5
ag5
ag5
ag5
ag5
ag5
ag5
ag5
ag5
ag5
ag5
ag5
ag5
ag5
ag5
ag5
ag5
ag5
ag5
ag5
ag5
ag5
ag5
ag5
ag5
ag5
ag5
ag5
ag5
ag5
ag5
ag5
ag5
ag5
ag5
ag5
ag5
ag5
ag5
ag5
ag5
ag5
ag5
ag5
ag5
ag5
ag5
ag5
ag5
ag5
ag5
ag5
ag5
ag5
ag5
ag5
ag5
ag5
ag5
ag5
ag5
ag5
ag5
ag5
ag5
ag5
ag5
ag5
ag5
ag5
ag5
ag5
ag5
ag5
ag5
ag5
ag5
ag5
ag5
ag5
ag5
ag5
ag5
ag5
ag5
ag5
ag5
ag5
ag5
ag5
ag5
ag5
ag5
ag5
ag5
ag5
ag5
ag5
ag5
ag5
ag5
ag5
ag5
ag5
ag5
ag5
ag5
ag5
ag5
ag5
ag5
ag5
ag5
ag5
ag5
ag5
ag5
ag5
ag5
ag5
ag5
ag5
ag5
ag5
ag5
ag5
ag5
ag5
ag5
ag5
ag5
ag5
ag5
ag5
ag5
ag5
ag5
ag5
ag5
ag5
ag5
ag5
ag5
ag5
ag5
ag5
ag5
ag5
ag5
ag5
ag5
ag5
ag5
ag5
ag5
ag5
ag5
ag5
ag5
ag5
ag5
ag5
ag5
ag5
ag5
ag5
ag5
ag5
ag5
ag5
ag5
ag5
ag5
ag5
ag5
ag5
ag5
ag5
ag5
ag5
ag5
ag5
ag5
ag5
ag5
ag5
ag5
ag5
ag5
ag5
ag5
ag5
ag5
ag5
ag5
ag5
ag5
ag5
ag5
ag5
ag5
ag5
ag5
ag5
ag5
ag5
ag5
ag5
ag5
ag5
ag5
ag5
ag5
ag5
ag5
ag5
ag5
ag5
ag5
ag5
ag5
ag5
ag5
ag5
ag5
ag5
ag5
ag5
ag5
ag5
ag5
ag5
ag5
ag5
ag5
ag5
ag5
ag5
ag5
ag5
ag5
ag5
ag5
ag5
ag5
ag5
ag5
ag5
ag5
ag5
ag5
ag5
ag5
ag5
ag5
ag5
ag5
ag5
ag5
ag5
ag5
ag5
ag5
ag5
ag5
ag5
ag5
ag5
ag5
ag5
ag5
ag5
ag5
ag5
ag5
ag5
ag5
ag5
ag5
ag5
ag5
ag5
ag5
ag5
ag5
ag5
ag5
ag5
ag5
ag5
ag5
ag5
ag5
ag5
ag5
ag5
ag5
ag5
ag5
ag5
ag5
ag5
ag5
ag5
ag5
ag5
ag5
ag5
ag5
ag5
ag5
ag5
ag5
ag5
ag5
ag5
ag5
ag5
ag5
ag5
ag5
ag5
ag5
ag5
ag5
ag5
ag5
ag5
ag5
ag5
ag5
ag5
ag5
ag5
ag5
ag5
ag5
ag5
ag5
ag5
ag5
ag5
ag5
ag5
ag5
ag5
ag5
ag5
ag5
ag5
ag5
ag5
ag5
ag5
ag5
ag5
ag5
ag5
ag5
ag5
ag5
ag5
ag5
ag5
ag5
ag5
ag5
ag5
ag5
ag5
ag5
ag5
ag5
ag5
ag5
ag5
ag5
ag5
ag5
ag5
ag5
ag5
ag5
ag5
ag5
ag5
ag5
ag5
ag5
ag5
ag5
ag5
ag5
ag5
ag5
ag5
ag5
ag5
ag5
ag5
ag5
ag5
ag5
ag5
ag5
ag5
ag5
ag5
ag5
ag5
ag5
ag5
ag5
ag5
ag5
ag5
ag5
ag5
ag5
ag5
ag5
ag5
ag5
ag5
ag5
ag5
ag5
ag5
ag5
ag5
ag5
ag5
ag5
ag5
ag5
ag5
ag5
ag5
ag5
ag5
ag5
ag5
ag5
ag5
ag5
ag5
ag5
ag5
ag5
ag5
ag5
ag5
ag5
ag5
ag5
ag5
ag5
ag5
ag5
ag5
ag5
ag5
ag5
ag5
ag5
ag5
ag5
ag5
ag5
ag5
ag5
ag5
ag5
ag5
ag5
ag5
ag5
ag5
ag5
ag5
ag5
ag5
ag5
ag5
ag5
ag5
ag5
ag5
ag5
ag5
ag5
ag5
ag5
ag5
ag5
ag5
ag5
ag5
ag5
ag5
ag5
ag5
ag5
ag5
ag5
ag5
ag5
ag5
ag5
ag5
ag5
ag5
ag5
ag5
ag5
ag5
ag5
ag5
ag5
ag5
ag5
ag5
ag5
ag5
ag5
ag5
ag5
ag5
ag5
ag5
ag5
ag5
ag5
ag5
ag5
ag5
ag5
ag5
ag5
ag5
ag5
ag5
ag5
ag5
ag5
ag5
ag5
ag5
ag5
ag5
ag5
ag5
ag5
ag5
ag5
ag5
ag5
ag5
ag5
ag5
ag5
ag5
ag5
ag5
ag5
ag5
ag5
ag5
ag5
ag5
ag5
ag5
ag5
ag5
ag5
ag5
ag5
ag5
ag5
ag5
ag5
ag5
ag5
ag5
ag5
ag5
ag5
ag5
ag5
ag5
ag5
ag5
ag5
ag5
ag5
ag5
ag5
ag5
ag5
ag5
ag5
ag5
ag5
ag5
ag5
ag5
ag5
ag5
ag5
ag5
ag5
ag5
ag5
ag5
ag5
ag5
ag5
ag5
ag5
ag5
ag5
ag5
ag5
ag5
ag5
ag5
ag5
ag5
ag5
ag5
ag5
ag5
ag5
ag5
ag5
ag5
ag5
ag5
ag5
ag5
ag5
ag5
ag5
ag5
ag5
ag5
ag5
ag5
ag5
ag5
ag5
ag5
ag5
ag5
ag5
ag5
ag5
ag5
ag5
ag5
ag5
ag5
ag5
ag5
ag5
ag5
ag5
ag5
ag5
ag5
ag5
ag5
ag5
ag5
ag5
ag5
ag5
ag5
ag5
ag5
ag5
ag5
ag5
ag5
ag5
ag5
ag5
ag5
ag5
ag5
ag5
ag5
ag5
ag5
ag5
ag5
ag5
ag5
ag5
ag5
ag5
ag5
ag5
ag5
ag5
ag5
ag5
ag5
ag5
ag5
ag5
ag5
ag5
ag5
ag5
ag5
ag5
ag5
ag5
ag5
ag5
ag5
ag5
ag5
ag5
ag5
ag5
ag5
ag5
ag5
ag5
ag5
ag5
ag5
ag5
ag5
ag5
ag5
ag5
ag5
ag5
ag5
ag5
ag5
ag5
ag5
ag5
ag5
ag5
ag5
ag5
ag5
ag5
ag5
ag5
ag5
ag5
ag5
ag5
ag5
ag5
ag5
ag5
ag5
ag5
ag5
ag5
ag5
ag5
ag5
ag5
ag5
ag5
ag5
ag5
ag5
ag5
ag5
ag5
ag5
ag5
ag5
ag5
ag5
ag5
ag5
ag5
ag5
ag5
ag5
ag5
ag5
ag5
ag5
ag5
ag5
ag5
ag5
ag5
ag5
ag5
ag5
ag5
ag5
ag5
ag5
ag5
ag5
ag5
ag5
ag5
ag5
ag5
ag5
ag5
ag5
ag5
ag5
ag5
ag5
ag5
ag5
ag5
ag5
ag5
ag5
ag5
ag5
ag5
ag5
ag5
ag5
ag5
ag5
ag5
ag5
ag5
ag5
ag5
ag5
ag5
ag5
ag5
ag5
ag5
ag5
ag5
ag5
ag5
ag5
ag5
ag5
ag5
ag5
ag5
ag5
ag5
ag5
ag5
ag5
ag5
ag5
ag5
ag5
ag5
ag5
ag5
ag5
ag5
ag5
ag5
ag5
ag5
ag5
ag5
ag5
ag5
ag5
ag5
ag5
ag5
ag5
ag5
ag5
ag5
ag5
ag5
ag5
ag5
ag5
ag5
ag5
ag5
ag5
ag5
ag5
ag5
ag5
ag5
ag5
ag5
ag5
ag5
ag5
ag5
ag5
ag5
ag5
ag5
ag5
ag5
ag5
ag5
ag5
ag5
ag5
ag5
ag5
ag5
ag5
ag5
ag5
ag5
ag5
ag5
ag5
ag5
ag5
ag5
ag5
ag5
ag5
ag5
ag5
ag5
ag5
ag5
ag5
ag5
ag5
ag5
ag5
ag5
ag5
ag5
ag5
ag5
ag5
ag5
ag5
ag5
ag5
ag5
ag5
ag5
ag5
ag5
ag5
ag5
ag5
ag5
ag5
ag5
ag5
ag5
ag5
ag5
ag5
ag5
ag5
ag5
ag5
ag5
ag5
ag5
ag5
ag5
ag5
ag5
ag5
ag5
ag5
ag5
ag5
ag5
ag5
ag5
ag5
ag5
ag5
ag5
ag5
ag5
ag5
ag5
ag5
ag5
ag5
ag5
ag5
ag5
ag5
ag5
ag5
ag5
ag5
ag5
ag5
ag5
ag5
ag5
ag5
ag5
ag5
ag5
ag5
ag5
ag5
ag5
ag5
ag5
ag5
ag5
ag5
ag5
ag5
ag5
ag5
ag5
ag5
ag5
ag5
ag5
ag5
ag5
ag5
ag5
ag5
ag5
ag5
ag5
ag5
ag5
ag5
ag5
ag5
ag5
ag5
ag5
ag5
ag5
ag5
ag5
ag5
ag5
ag5
ag5
ag5
ag5
ag5
ag5
ag5
ag5
ag5
ag5
ag5
ag5
ag5
ag5
ag5
ag5
ag5
ag5
ag5
ag5
ag5
ag5
ag5
ag5
ag5
ag5
ag5
ag5
ag5
ag5
ag5
ag5
ag5
ag5
ag5
ag5
ag5
ag5
ag5
ag5
ag5
ag5
ag5
ag5
ag5
ag5
ag5
ag5
ag5
ag5
ag5
ag5
ag5
ag5
ag5
ag5
ag5
ag5
ag5
ag5
ag5
ag5
ag5
ag5
ag5
ag5
ag5
ag5
ag5
ag5
ag5
ag5
ag5
ag5
ag5
ag5
ag5
ag5
ag5
ag5
ag5
ag5
ag5
ag5
ag5
ag5
ag5
ag5
ag5
ag5
ag5
ag5
ag5
ag5
ag5
ag5
ag5
ag5
ag5
ag5
ag5
ag5
ag5
ag5
ag5
ag5
ag5
ag5
ag5
ag5
ag5
ag5
ag5
ag5
ag5
ag5
ag5
ag5
ag5
ag5
ag5
ag5
ag5
ag5
ag5
ag5
ag5
ag5
ag5
ag5
ag5
ag5
ag5
ag5
ag5
ag5
ag5
ag5
ag5
ag5
ag5
ag5
ag5
ag5
ag5
ag5
ag5
ag5
ag5
ag5
ag5
ag5
ag5
ag5
ag5
ag5
ag5
ag5
ag5
ag5
ag5
ag5
ag5
ag5
ag5
ag5
ag5
ag5
ag5
ag5
ag5
ag5
ag5
ag5
ag5
ag5
ag5
ag5
ag5
ag5
ag5
ag5
ag5
ag5
ag5
ag5
ag5
ag5
ag5
ag5
ag5
ag5
ag5
ag5
ag5
ag5
ag5
ag5
ag5
ag5
ag5
ag5
ag5
ag5
ag5
ag5
ag5
ag5
ag5
ag5
ag5
ag5
ag5
ag5
ag5
ag5
ag5
ag5
ag5
ag5
ag5
ag5
ag5
ag5
ag5
ag5
ag5
ag5
ag5
ag5
ag5
ag5
ag5
ag5
ag5
ag5
ag5
ag5
ag5
ag5
ag5
ag5
ag5
ag5
asS'lenq'
p139
(lp140
I1
aI2
aI3
aI4
aI5
aI6
aI7
aI7
aI8
aI9
aI9
aI9
aI10
aI10
aI10
aI11
aI11
aI11
aI11
aI11
aI11
aI11
aI11
aI11
aI12
aI12
aI13
aI13
aI14
aI14
aI14
aI14
aI14
aI14
aI14
aI14
aI14
aI14
aI14
aI14
aI14
aI14
aI14
aI14
aI14
aI14
aI15
aI15
aI15
aI15
aI15
aI15
aI15
aI15
aI15
aI15
aI15
aI15
aI15
aI15
aI15
aI15
aI15
aI15
aI15
aI15
aI15
aI15
aI15
aI15
aI15
aI15
aI15
aI15
aI15
aI15
aI15
aI15
aI16
aI16
aI16
aI16
aI16
aI16
aI16
aI16
aI16
aI16
aI16
aI16
aI16
aI16
aI16
aI16
aI16
aI16
aI16
aI16
aI16
aI16
aI16
aI16
aI16
aI16
aI16
aI16
aI16
aI16
aI16
aI16
aI16
aI16
aI16
aI16
aI16
aI16
aI16
aI17
aI18
aI19
aI19
aI19
aI20
aI20
aI20
aI20
aI20
aI20
aI20
aI20
aI20
aI20
aI20
aI20
aI20
aI20
aI21
aI21
aI22
aI23
aI23
aI23
aI23
aI23
aI23
aI23
aI23
aI23
aI23
aI23
aI23
aI23
aI23
aI24
aI24
aI24
aI24
aI24
aI24
aI24
aI24
aI24
aI24
aI24
aI24
aI24
aI24
aI24
aI24
aI24
aI24
aI24
aI24
aI24
aI24
aI24
aI24
aI24
aI24
aI24
aI24
aI24
aI24
aI24
aI24
aI24
aI24
aI24
aI24
aI24
aI24
aI24
aI24
aI24
aI24
aI24
aI24
aI24
aI24
aI24
aI24
aI24
aI24
aI24
aI24
aI24
aI24
aI25
aI25
aI25
aI25
aI25
aI25
aI25
aI25
aI25
aI25
aI25
aI25
aI25
aI25
aI25
aI25
aI25
aI25
aI25
aI25
aI25
aI25
aI25
aI25
aI25
aI25
aI25
aI25
aI25
aI25
aI25
aI25
aI25
aI25
aI25
aI25
aI25
aI25
aI25
aI25
aI25
aI25
aI25
aI25
aI25
aI25
aI25
aI25
aI25
aI25
aI25
aI25
aI25
aI25
aI25
aI25
aI25
aI25
aI25
aI25
aI25
aI25
aI25
aI25
aI25
aI25
aI25
aI25
aI25
aI25
aI25
aI25
aI25
aI25
aI25
aI25
aI25
aI25
aI25
aI25
aI25
aI25
aI25
aI25
aI25
aI25
aI25
aI25
aI25
aI25
aI25
aI25
aI26
aI27
aI28
aI28
aI28
aI28
aI29
aI29
aI29
aI29
aI29
aI29
aI30
aI31
aI32
aI32
aI32
aI32
aI32
aI32
aI32
aI32
aI32
aI32
aI33
aI33
aI33
aI33
aI33
aI33
aI33
aI33
aI33
aI33
aI33
aI33
aI33
aI33
aI33
aI34
aI35
aI35
aI35
aI35
aI35
aI35
aI35
aI35
aI35
aI35
aI35
aI35
aI35
aI35
aI35
aI35
aI35
aI35
aI35
aI35
aI35
aI35
aI35
aI35
aI35
aI35
aI35
aI35
aI35
aI35
aI35
aI35
aI35
aI35
aI35
aI35
aI35
aI35
aI35
aI35
aI35
aI35
aI35
aI35
aI36
aI36
aI36
aI36
aI36
aI36
aI36
aI36
aI36
aI36
aI36
aI36
aI36
aI36
aI36
aI36
aI36
aI36
aI36
aI36
aI36
aI36
aI36
aI36
aI36
aI36
aI36
aI36
aI36
aI36
aI36
aI36
aI36
aI36
aI36
aI36
aI36
aI36
aI36
aI36
aI36
aI36
aI36
aI36
aI36
aI36
aI36
aI36
aI36
aI36
aI36
aI36
aI36
aI36
aI36
aI36
aI36
aI36
aI36
aI36
aI36
aI36
aI36
aI36
aI36
aI36
aI36
aI36
aI36
aI36
aI36
aI36
aI36
aI36
aI36
aI36
aI36
aI36
aI36
aI36
aI36
aI36
aI36
aI36
aI36
aI36
aI36
aI36
aI36
aI36
aI36
aI36
aI36
aI36
aI36
aI36
aI36
aI36
aI36
aI36
aI36
aI36
aI36
aI36
aI36
aI36
aI36
aI36
aI36
aI36
aI36
aI36
aI36
aI36
aI37
aI37
aI37
aI37
aI37
aI37
aI37
aI37
aI37
aI37
aI37
aI37
aI37
aI37
aI37
aI37
aI37
aI37
aI37
aI37
aI37
aI37
aI37
aI37
aI37
aI37
aI37
aI37
aI37
aI37
aI37
aI37
aI37
aI37
aI37
aI37
aI37
aI37
aI37
aI37
aI37
aI37
aI37
aI37
aI37
aI37
aI37
aI37
aI37
aI37
aI37
aI37
aI37
aI37
aI37
aI37
aI37
aI37
aI37
aI38
aI39
aI40
aI40
aI40
aI41
aI41
aI42
aI42
aI42
aI42
aI42
aI42
aI42
aI42
aI42
aI42
aI42
aI42
aI42
aI42
aI42
aI42
aI42
aI42
aI42
aI42
aI42
aI42
aI42
aI42
aI42
aI42
aI42
aI42
aI43
aI43
aI43
aI43
aI43
aI44
aI44
aI45
aI45
aI45
aI45
aI45
aI45
aI45
aI45
aI45
aI45
aI45
aI45
aI45
aI45
aI45
aI45
aI45
aI45
aI45
aI45
aI45
aI45
aI45
aI45
aI45
aI45
aI45
aI45
aI45
aI45
aI45
aI45
aI45
aI45
aI45
aI45
aI45
aI45
aI45
aI45
aI45
aI45
aI45
aI45
aI45
aI45
aI45
aI45
aI45
aI45
aI45
aI45
aI45
aI46
aI46
aI46
aI46
aI46
aI46
aI46
aI46
aI46
aI46
aI46
aI46
aI46
aI46
aI46
aI46
aI46
aI46
aI46
aI46
aI46
aI46
aI46
aI46
aI46
aI46
aI46
aI46
aI46
aI46
aI46
aI46
aI46
aI46
aI46
aI46
aI46
aI46
aI46
aI46
aI46
aI47
aI48
aI48
aI48
aI48
aI48
aI48
aI48
aI48
aI49
aI50
aI50
aI50
aI50
aI50
aI50
aI50
aI50
aI50
aI50
aI50
aI50
aI50
aI50
aI50
aI50
aI50
aI50
aI50
aI50
aI50
aI50
aI50
aI51
aI51
aI51
aI51
aI51
aI51
aI51
aI51
aI51
aI51
aI51
aI51
aI51
aI51
aI51
aI51
aI52
aI52
aI52
aI52
aI52
aI52
aI52
aI52
aI52
aI52
aI52
aI52
aI52
aI52
aI52
aI52
aI52
aI52
aI52
aI52
aI52
aI52
aI52
aI52
aI52
aI52
aI52
aI52
aI52
aI53
aI53
aI53
aI53
aI53
aI53
aI53
aI53
aI53
aI53
aI53
aI53
aI53
aI53
aI53
aI53
aI53
aI53
aI53
aI53
aI53
aI53
aI53
aI53
aI53
aI53
aI53
aI53
aI53
aI53
aI53
aI53
aI53
aI53
aI53
aI53
aI53
aI53
aI53
aI53
aI53
aI53
aI53
aI53
aI53
aI53
aI53
aI53
aI53
aI53
aI53
aI53
aI53
aI53
aI53
aI53
aI53
aI53
aI53
aI53
aI53
aI53
aI53
aI53
aI53
aI53
aI53
aI53
aI53
aI53
aI53
aI53
aI53
aI54
aI54
aI54
aI54
aI54
aI54
aI54
aI54
aI54
aI54
aI54
aI54
aI54
aI55
aI55
aI55
aI55
aI56
aI56
aI56
aI56
aI56
aI56
aI56
aI56
aI56
aI56
aI56
aI56
aI56
aI56
aI56
aI56
aI56
aI56
aI56
aI56
aI56
aI56
aI56
aI56
aI56
aI56
aI56
aI56
aI56
aI56
aI56
aI56
aI56
aI56
aI56
aI56
aI56
aI56
aI56
aI56
aI56
aI56
aI56
aI57
aI57
aI57
aI57
aI57
aI57
aI57
aI57
aI57
aI57
aI57
aI57
aI57
aI57
aI57
aI57
aI57
aI57
aI57
aI57
aI57
aI57
aI57
aI57
aI57
aI57
aI57
aI57
aI57
aI57
aI57
aI57
aI57
aI57
aI57
aI57
aI57
aI57
aI57
aI57
aI57
aI57
aI57
aI57
aI57
aI57
aI58
aI58
aI58
aI58
aI58
aI58
aI58
aI58
aI58
aI58
aI58
aI58
aI58
aI58
aI58
aI58
aI58
aI58
aI58
aI58
aI59
aI59
aI59
aI59
aI59
aI59
aI59
aI59
aI59
aI59
aI59
aI59
aI59
aI59
aI59
aI59
aI59
aI59
aI59
aI59
aI59
aI59
aI59
aI59
aI59
aI59
aI59
aI59
aI59
aI59
aI59
aI59
aI59
aI59
aI59
aI59
aI59
aI59
aI59
aI59
aI59
aI59
aI59
aI59
aI59
aI59
aI59
aI59
aI59
aI59
aI59
aI59
aI59
aI59
aI59
aI59
aI59
aI59
aI59
aI59
aI59
aI59
aI59
aI59
aI59
aI59
aI59
aI59
aI59
aI59
aI59
aI59
aI59
aI59
aI59
aI59
aI59
aI59
aI59
aI59
aI59
aI59
aI59
aI59
aI59
aI59
aI59
aI59
aI59
aI59
aI59
aI59
aI59
aI59
aI59
aI59
aI59
aI59
aI59
aI59
aI59
aI59
aI59
aI59
aI59
aI59
aI59
aI59
aI59
aI59
aI59
aI59
aI59
aI59
aI59
aI59
aI59
aI59
aI59
aI59
aI59
aI59
aI59
aI59
aI59
aI59
aI59
aI59
aI59
aI59
aI59
aI59
aI59
aI59
aI59
aI59
aI59
aI59
aI59
aI59
aI59
aI59
aI59
aI59
aI59
aI59
aI59
aI59
aI59
aI59
aI59
aI59
aI59
aI59
aI59
aI59
aI59
aI59
aI59
aI59
aI59
aI59
aI59
aI59
aI59
aI59
aI59
aI59
aI59
aI59
aI59
aI59
aI59
aI59
aI59
aI59
aI59
aI59
aI59
aI59
aI59
aI59
aI59
aI59
aI59
aI59
aI59
aI59
aI59
aI59
aI59
aI59
aI59
aI59
aI59
aI59
aI59
aI59
aI59
aI59
aI59
aI59
aI59
aI59
aI59
aI59
aI59
aI59
aI59
aI59
aI59
aI59
aI59
aI59
aI59
aI59
aI59
aI59
aI59
aI59
aI59
aI59
aI59
aI59
aI59
aI59
aI59
aI59
aI59
aI59
aI59
aI59
aI59
aI59
aI59
aI59
aI59
aI59
aI59
aI59
aI59
aI59
aI59
aI59
aI59
aI59
aI59
aI59
aI59
aI59
aI59
aI59
aI59
aI59
aI59
aI59
aI59
aI59
aI59
aI59
aI60
aI60
aI60
aI60
aI60
aI60
aI60
aI60
aI60
aI60
aI60
aI60
aI60
aI60
aI60
aI60
aI60
aI60
aI60
aI60
aI60
aI60
aI60
aI60
aI60
aI60
aI60
aI60
aI60
aI60
aI60
aI61
aI61
aI62
aI62
aI62
aI62
aI62
aI62
aI62
aI62
aI62
aI62
aI62
aI62
aI62
aI62
aI62
aI62
aI62
aI62
aI62
aI62
aI62
aI62
aI62
aI62
aI62
aI62
aI62
aI62
aI62
aI62
aI62
aI62
aI62
aI62
aI62
aI62
aI62
aI62
aI62
aI62
aI62
aI62
aI62
aI62
aI62
aI62
aI62
aI62
aI62
aI62
aI62
aI62
aI62
aI62
aI62
aI62
aI62
aI62
aI62
aI62
aI62
aI62
aI62
aI62
aI62
aI62
aI62
aI62
aI62
aI62
aI62
aI62
aI62
aI62
aI62
aI62
aI63
aI63
aI63
aI63
aI63
aI63
aI63
aI63
aI63
aI63
aI63
aI63
aI63
aI63
aI63
aI63
aI64
aI64
aI64
aI64
aI64
aI64
aI64
aI64
aI64
aI64
aI64
aI64
aI64
aI64
aI64
aI64
aI64
aI64
aI64
aI64
aI64
aI64
aI64
aI64
aI64
aI64
as.