(dp0
S'successes'
p1
(lp2
I0
aI0
aI0
aI0
aI0
aI0
aI0
aI0
aI0
aI0
aI0
aI0
aI0
aI0
aI0
aI0
aI0
aI0
aI0
aI0
aI0
aI0
aI0
aI0
aI0
aI0
aI0
aI0
aI0
aI0
aI1
aI0
aI0
aI0
aI0
aI0
aI0
aI0
aI0
aI0
aI0
aI0
aI0
aI0
aI0
aI0
aI0
aI0
aI0
aI0
aI0
aI1
aI0
aI0
aI0
aI0
aI0
aI0
aI1
aI0
aI0
aI0
aI0
aI0
aI0
aI0
aI0
aI0
aI0
aI0
aI1
aI0
aI0
aI0
aI0
aI0
aI0
aI0
aI0
aI0
aI0
aI0
aI0
aI0
aI1
aI0
aI0
aI0
aI0
aI0
aI0
aI0
aI0
aI0
aI1
aI0
aI0
aI0
aI0
aI0
aI0
aI0
aI0
aI0
aI1
aI0
aI0
aI0
aI0
aI0
aI0
aI0
aI0
aI1
aI0
aI0
aI0
aI1
aI0
aI0
aI0
aI0
aI0
aI0
aI0
aI0
aI0
aI0
aI0
aI0
aI0
aI1
aI0
aI0
aI0
aI0
aI0
aI0
aI0
aI0
aI0
aI0
aI0
aI0
aI0
aI1
aI0
aI0
aI0
aI0
aI0
aI0
aI0
aI0
aI0
aI0
aI1
aI0
aI0
aI0
aI0
aI0
aI0
aI0
aI0
aI0
aI0
aI0
aI0
aI0
aI0
aI0
aI0
aI0
aI0
aI0
aI0
aI0
aI0
aI0
aI0
aI0
aI0
aI0
aI0
aI0
aI0
aI0
aI0
aI0
aI0
aI0
aI0
aI0
aI0
aI0
aI0
aI0
aI0
aI0
aI0
aI0
aI0
aI0
aI1
aI0
aI0
aI0
aI0
aI0
aI0
aI0
aI0
aI0
aI1
aI0
aI0
aI0
aI0
aI0
aI0
aI0
aI0
aI0
aI0
aI0
aI0
aI0
aI1
aI0
aI0
aI0
aI0
aI0
aI0
aI0
aI0
aI0
aI0
aI0
aI0
aI0
aI0
aI0
aI1
aI0
aI0
aI0
aI0
aI0
aI0
aI0
aI0
aI0
aI0
aI1
aI0
aI0
aI0
aI0
aI0
aI0
aI0
aI0
aI0
aI0
aI0
aI0
aI0
aI0
aI0
aI0
aI1
aI0
aI0
aI0
aI0
aI0
aI0
aI0
aI0
aI0
aI0
aI1
aI0
aI0
aI0
aI0
aI0
aI0
aI0
aI0
aI0
aI0
aI0
aI0
aI0
aI0
aI0
aI0
aI0
aI0
aI0
aI0
aI0
aI0
aI0
aI0
aI0
aI1
aI0
aI0
aI0
aI0
aI0
aI0
aI1
aI0
aI0
aI0
aI0
aI0
aI0
aI1
aI0
aI0
aI0
aI0
aI0
aI0
aI0
aI0
aI0
aI0
aI0
aI0
aI0
aI0
aI0
aI0
aI0
aI0
aI0
aI0
aI0
aI0
aI0
aI0
aI0
aI0
aI0
aI0
aI0
aI0
aI0
aI0
aI0
aI0
aI0
aI1
aI0
aI0
aI0
aI0
aI0
aI0
aI0
aI0
aI0
aI0
aI0
aI0
aI0
aI0
aI0
aI0
aI1
aI0
aI0
aI0
aI0
aI0
aI0
aI1
aI0
aI0
aI0
aI0
aI0
aI0
aI0
aI0
aI0
aI0
aI1
aI0
aI0
aI0
aI0
aI0
aI0
aI0
aI0
aI0
aI1
aI0
aI0
aI0
aI0
aI0
aI0
aI0
aI0
aI0
aI0
aI0
aI1
aI0
aI0
aI0
aI0
aI0
aI0
aI0
aI0
aI0
aI0
aI0
aI0
aI0
aI0
aI0
aI0
aI1
aI0
aI0
aI0
aI0
aI0
aI0
aI0
aI0
aI0
aI0
aI0
aI0
aI0
aI0
aI0
aI0
aI0
aI0
aI0
aI0
aI0
aI0
aI0
aI0
aI0
aI0
aI0
aI0
aI0
aI0
aI0
aI0
aI0
aI1
aI0
aI0
aI0
aI0
aI0
aI0
aI0
aI0
aI0
aI1
aI0
aI0
aI0
aI0
aI0
aI0
aI0
aI0
aI0
aI0
aI0
aI0
aI1
aI0
aI0
aI0
aI0
aI1
aI0
aI0
aI0
aI0
aI0
aI0
aI0
aI0
aI0
aI0
aI0
aI0
aI0
aI0
aI0
aI0
aI0
aI0
aI0
aI0
aI0
aI0
aI0
aI0
aI1
aI0
aI0
aI0
aI0
aI0
aI0
aI0
aI0
aI1
aI0
aI0
aI0
aI0
aI1
aI0
aI0
aI0
aI0
aI0
aI0
aI0
aI0
aI0
aI0
aI1
aI0
aI0
aI0
aI0
aI0
aI0
aI0
aI0
aI0
aI0
aI0
aI0
aI0
aI0
aI0
aI0
aI1
aI0
aI0
aI0
aI0
aI0
aI1
aI0
aI0
aI0
aI0
aI0
aI0
aI0
aI0
aI0
aI0
aI0
aI0
aI0
aI0
aI0
aI0
aI1
aI0
aI0
aI0
aI0
aI0
aI0
aI0
aI0
aI0
aI0
aI1
aI0
aI0
aI0
aI0
aI0
aI0
aI0
aI0
aI0
aI0
aI0
aI0
aI0
aI0
aI0
aI0
aI0
aI1
aI0
aI0
aI0
aI0
aI0
aI0
aI1
aI0
aI0
aI0
aI0
aI0
aI0
aI0
aI0
aI0
aI0
aI0
aI0
aI0
aI0
aI0
aI0
aI0
aI0
aI0
aI0
aI1
aI0
aI0
aI0
aI0
aI0
aI0
aI0
aI0
aI0
aI0
aI1
aI0
aI0
aI0
aI0
aI0
aI0
aI0
aI1
aI0
aI0
aI0
aI0
aI0
aI0
aI0
aI0
aI0
aI0
aI1
aI0
aI0
aI0
aI0
aI0
aI0
aI0
aI0
aI0
aI0
aI0
aI1
aI0
aI0
aI0
aI0
aI0
aI0
aI0
aI0
aI0
aI0
aI1
aI0
aI0
aI0
aI0
aI0
aI0
aI0
aI0
aI0
aI0
aI0
aI0
aI0
aI0
aI0
aI0
aI0
aI1
aI0
aI0
aI0
aI0
aI0
aI0
aI0
aI1
aI0
aI0
aI0
aI0
aI0
aI0
aI0
aI0
aI0
aI0
aI0
aI0
aI1
aI0
aI0
aI0
aI0
aI0
aI0
aI0
aI0
aI0
aI0
aI0
aI0
aI0
aI1
aI0
aI0
aI0
aI0
aI0
aI0
aI0
aI0
aI0
aI0
aI0
aI0
aI1
aI0
aI0
aI0
aI0
aI0
aI0
aI0
aI0
aI0
aI1
aI0
aI0
aI0
aI0
aI0
aI0
aI1
aI0
aI0
aI0
aI1
aI0
aI0
aI0
aI0
aI0
aI0
aI0
aI0
aI1
aI0
aI0
aI0
aI0
aI0
aI0
aI0
aI1
aI0
aI0
aI0
aI0
aI0
aI0
aI0
aI0
aI0
aI0
aI0
aI0
aI0
aI0
aI0
aI1
aI0
aI0
aI0
aI0
aI0
aI0
aI0
aI0
aI0
aI0
aI0
aI0
aI0
aI0
aI0
aI0
aI1
aI0
aI0
aI0
aI0
aI0
aI0
aI0
aI0
aI0
aI0
aI0
aI0
aI1
aI0
aI0
aI0
aI0
aI0
aI0
aI0
aI0
aI0
aI0
aI0
aI0
aI0
aI0
aI0
aI1
aI0
aI1
aI0
aI0
aI0
aI0
aI0
aI0
aI0
aI0
aI0
aI0
aI0
aI0
aI0
aI0
aI1
aI0
aI0
aI0
aI0
aI0
aI0
aI0
aI1
aI0
aI0
aI0
aI0
aI0
aI0
aI0
aI1
aI0
aI0
aI0
aI0
aI0
aI0
aI0
aI0
aI0
aI0
aI0
aI0
aI0
aI1
aI0
aI0
aI0
aI0
aI0
aI0
aI0
aI0
aI0
aI0
aI0
aI0
aI1
aI0
aI0
aI0
aI0
aI0
aI0
aI0
aI0
aI1
aI0
aI0
aI0
aI0
aI0
aI0
aI0
aI0
aI0
aI0
aI0
aI0
aI0
aI0
aI0
aI0
aI0
aI0
aI0
aI0
aI0
aI1
aI0
aI0
aI0
aI0
aI0
aI0
aI0
aI0
aI0
aI0
aI0
aI0
aI0
aI0
aI1
aI0
aI0
aI0
aI0
aI0
aI0
aI0
aI0
aI0
aI1
aI0
aI0
aI0
aI0
aI0
aI0
aI0
aI0
aI1
aI0
aI0
aI0
aI0
aI0
aI0
aI0
aI0
aI0
aI0
aI0
aI0
aI0
aI0
aI0
aI0
aI1
aI0
aI0
aI0
aI0
aI0
aI0
aI0
aI0
aI0
aI0
aI1
aI0
aI0
aI0
aI0
aI0
aI0
aI0
aI0
aI0
aI0
aI0
aI1
aI0
aI0
aI0
aI0
aI0
aI0
aI1
aI0
aI0
aI0
aI0
aI0
aI0
aI0
aI0
aI0
aI0
aI1
aI0
aI0
aI0
aI0
aI1
aI0
aI0
aI0
aI0
aI1
aI0
aI0
aI0
aI0
aI0
aI0
aI0
aI0
aI0
aI0
aI0
aI0
aI0
aI0
aI1
aI0
aI0
aI0
aI0
aI0
aI0
aI0
aI0
aI0
aI0
aI0
aI1
aI0
aI0
aI0
aI0
aI0
aI1
aI0
aI0
aI0
aI0
aI0
aI0
aI1
aI0
aI0
aI0
aI0
aI0
aI0
aI0
aI0
aI0
aI0
aI0
aI0
aI0
aI0
aI0
aI0
aI0
aI0
aI0
aI0
aI1
aI0
aI0
aI0
aI0
aI0
aI0
aI0
aI0
aI0
aI0
aI1
aI0
aI0
aI0
aI0
aI0
aI0
aI0
aI0
aI1
aI0
aI0
aI0
aI1
aI0
aI0
aI0
aI0
aI0
aI0
aI0
aI0
aI0
aI0
aI0
aI0
aI0
aI0
aI0
aI0
aI0
aI1
aI0
aI0
aI0
aI0
aI0
aI0
aI0
aI0
aI0
aI1
aI0
aI0
aI0
aI0
aI0
aI0
aI0
aI0
aI0
aI0
aI1
aI0
aI0
aI0
aI0
aI0
aI0
aI0
aI0
aI0
aI0
aI0
aI0
aI0
aI0
aI0
aI0
aI0
aI0
aI0
aI0
aI1
aI0
aI0
aI0
aI0
aI0
aI0
aI0
aI0
aI0
aI0
aI0
aI0
aI1
aI0
aI0
aI0
aI1
aI0
aI0
aI0
aI0
aI0
aI0
aI1
aI0
aI0
aI0
aI0
aI0
aI0
aI0
aI0
aI0
aI0
aI0
aI0
aI0
aI1
asS'qtables'
p3
(lp4
(dp5
((S'red'
p6
NNNS'left'
p7
tp8
S'forward'
p9
tp10
F-1.0
s((S'green'
p11
g9
NNS'right'
p12
tp13
g7
tp14
F-1.0
s((g6
NNg7
g9
tp15
Ntp16
F0.0
s((g6
g12
NNg9
tp17
g12
tp18
F-0.5
s((g6
g7
NNg9
tp19
g7
tp20
F-1.0
s((g6
g9
NNg7
tp21
g9
tp22
F-1.0
s((g6
Ng9
Ng9
tp23
g9
tp24
F-1.0
s((g6
g9
NNg9
tp25
Ntp26
F0.0
s((g6
NNNg7
tp27
g12
tp28
F-0.10283403044109152
s((g11
NNg9
g7
tp29
g12
tp30
F-0.5
s((g6
g7
NNg7
tp31
g9
tp32
F-1.0
s((g6
NNg9
g12
tp33
Ntp34
F0.0
s((g11
NNg9
g12
tp35
g12
tp36
F2.0
s((g6
NNNg9
tp37
g7
tp38
F-1.0
s((g11
Ng7
Ng12
tp39
g9
tp40
F-0.5
s((g11
g7
NNg9
tp41
Ntp42
F0.0
s((g11
Ng7
Ng9
tp43
g9
tp44
F12.0
s((g11
Ng7
Ng7
tp45
g12
tp46
F-0.5
s((g6
g12
NNg7
tp47
Ntp48
F0.0
s((g6
g9
NNg7
tp49
g7
tp50
F-1.0
s((g6
g9
NNg9
tp51
g7
tp52
F-1.0
s((g6
NNNg9
tp53
g9
tp54
F-1.0
s((g6
g9
NNg9
tp55
g12
tp56
F-0.5
s((g6
g7
NNg9
tp57
g12
tp58
F-0.5
s((g11
g12
NNg9
tp59
g12
tp60
F-0.5
s((g6
g9
NNg9
tp61
g9
tp62
F-1.0
s((g11
NNNg7
tp63
g7
tp64
F8.43767377788923
s((g6
NNNg7
tp65
g7
tp66
F-1.0
s((g11
g9
NNg9
tp67
Ntp68
F0.0
s((g11
NNNg9
tp69
g9
tp70
F6.132283212465348
s((g11
NNg12
g9
tp71
g7
tp72
F-0.5
s((g11
NNg7
g9
tp73
g9
tp74
F12.1592
s((g6
g9
NNg12
tp75
g12
tp76
F2.0
s((g11
NNNg9
tp77
Ntp78
F0.0
s((g6
g7
NNg9
tp79
Ntp80
F0.0
s((g11
NNg7
g9
tp81
g12
tp82
F-0.5
s((g6
Ng7
Ng9
tp83
g9
tp84
F-1.0
s((g6
NNNg7
tp85
Ntp86
F0.0
s((g11
NNNg12
tp87
g7
tp88
F-0.5
s((g6
NNNg12
tp89
g7
tp90
F-1.0
s((g11
NNg7
g7
tp91
g12
tp92
F-0.5
s((g11
g7
NNg9
tp93
g12
tp94
F-0.5
s((g6
g7
NNg7
tp95
g7
tp96
F-1.0
s((g11
NNg7
g9
tp97
Ntp98
F0.0
s((g6
g12
NNg9
tp99
Ntp100
F0.0
s((g11
NNg9
g9
tp101
g9
tp102
F2.162
s((g11
Ng12
Ng7
tp103
g7
tp104
F2.0
s((g11
Ng12
Ng9
tp105
g12
tp106
F-0.5
s((g6
g12
NNg9
tp107
g9
tp108
F-1.0
s((g11
Ng7
Ng9
tp109
g12
tp110
F-0.5
s((g11
g12
NNg12
tp111
g9
tp112
F-0.5
s((g11
NNg7
g9
tp113
g7
tp114
F-0.5
s((g6
Ng9
Ng9
tp115
g7
tp116
F-1.0
s((g11
g7
NNg9
tp117
g9
tp118
F11.582030313240434
s((g11
Ng12
Ng9
tp119
g7
tp120
F-0.5
s((g11
g7
NNg9
tp121
g7
tp122
F-0.5
s((g6
NNg9
g9
tp123
Ntp124
F0.0
s((g6
NNNg9
tp125
Ntp126
F0.0
s((g6
NNNg9
tp127
g12
tp128
F-0.5
s((g6
Ng9
Ng9
tp129
g12
tp130
F-1.0
s((g6
NNg9
g12
tp131
g9
tp132
F-1.0
s((g11
NNNg12
tp133
g12
tp134
F6.809170982132021
s((g6
NNg7
g9
tp135
g12
tp136
F-0.5
s((g6
Ng12
Ng9
tp137
Ntp138
F0.0
s((g11
Ng9
Ng9
tp139
g9
tp140
F12.0
s((g6
Ng7
Ng9
tp141
Ntp142
F0.0
s((g11
Ng7
Ng9
tp143
Ntp144
F0.0
s((g6
NNNg12
tp145
g12
tp146
F6.218542206861301
s((g6
g7
NNg9
tp147
g9
tp148
F-1.0
sag5
ag5
ag5
ag5
ag5
ag5
ag5
ag5
ag5
ag5
ag5
ag5
ag5
ag5
ag5
ag5
ag5
ag5
ag5
ag5
ag5
ag5
ag5
ag5
ag5
ag5
ag5
ag5
ag5
ag5
ag5
ag5
ag5
ag5
ag5
ag5
ag5
ag5
ag5
ag5
ag5
ag5
ag5
ag5
ag5
ag5
ag5
ag5
ag5
ag5
ag5
ag5
ag5
ag5
ag5
ag5
ag5
ag5
ag5
ag5
ag5
ag5
ag5
ag5
ag5
ag5
ag5
ag5
ag5
ag5
ag5
ag5
ag5
ag5
ag5
ag5
ag5
ag5
ag5
ag5
ag5
ag5
ag5
ag5
ag5
ag5
ag5
ag5
ag5
ag5
ag5
ag5
ag5
ag5
ag5
ag5
ag5
ag5
ag5
ag5
ag5
ag5
ag5
ag5
ag5
ag5
ag5
ag5
ag5
ag5
ag5
ag5
ag5
ag5
ag5
ag5
ag5
ag5
ag5
ag5
ag5
ag5
ag5
ag5
ag5
ag5
ag5
ag5
ag5
ag5
ag5
ag5
ag5
ag5
ag5
ag5
ag5
ag5
ag5
ag5
ag5
ag5
ag5
ag5
ag5
ag5
ag5
ag5
ag5
ag5
ag5
ag5
ag5
ag5
ag5
ag5
ag5
ag5
ag5
ag5
ag5
ag5
ag5
ag5
ag5
ag5
ag5
ag5
ag5
ag5
ag5
ag5
ag5
ag5
ag5
ag5
ag5
ag5
ag5
ag5
ag5
ag5
ag5
ag5
ag5
ag5
ag5
ag5
ag5
ag5
ag5
ag5
ag5
ag5
ag5
ag5
ag5
ag5
ag5
ag5
ag5
ag5
ag5
ag5
ag5
ag5
ag5
ag5
ag5
ag5
ag5
ag5
ag5
ag5
ag5
ag5
ag5
ag5
ag5
ag5
ag5
ag5
ag5
ag5
ag5
ag5
ag5
ag5
ag5
ag5
ag5
ag5
ag5
ag5
ag5
ag5
ag5
ag5
ag5
ag5
ag5
ag5
ag5
ag5
ag5
ag5
ag5
ag5
ag5
ag5
ag5
ag5
ag5
ag5
ag5
ag5
ag5
ag5
ag5
ag5
ag5
ag5
ag5
ag5
ag5
ag5
ag5
ag5
ag5
ag5
ag5
ag5
ag5
ag5
ag5
ag5
ag5
ag5
ag5
ag5
ag5
ag5
ag5
ag5
ag5
ag5
ag5
ag5
ag5
ag5
ag5
ag5
ag5
ag5
ag5
ag5
ag5
ag5
ag5
ag5
ag5
ag5
ag5
ag5
ag5
ag5
ag5
ag5
ag5
ag5
ag5
ag5
ag5
ag5
ag5
ag5
ag5
ag5
ag5
ag5
ag5
ag5
ag5
ag5
ag5
ag5
ag5
ag5
ag5
ag5
ag5
ag5
ag5
ag5
ag5
ag5
ag5
ag5
ag5
ag5
ag5
ag5
ag5
ag5
ag5
ag5
ag5
ag5
ag5
ag5
ag5
ag5
ag5
ag5
ag5
ag5
ag5
ag5
ag5
ag5
ag5
ag5
ag5
ag5
ag5
ag5
ag5
ag5
ag5
ag5
ag5
ag5
ag5
ag5
ag5
ag5
ag5
ag5
ag5
ag5
ag5
ag5
ag5
ag5
ag5
ag5
ag5
ag5
ag5
ag5
ag5
ag5
ag5
ag5
ag5
ag5
ag5
ag5
ag5
ag5
ag5
ag5
ag5
ag5
ag5
ag5
ag5
ag5
ag5
ag5
ag5
ag5
ag5
ag5
ag5
ag5
ag5
ag5
ag5
ag5
ag5
ag5
ag5
ag5
ag5
ag5
ag5
ag5
ag5
ag5
ag5
ag5
ag5
ag5
ag5
ag5
ag5
ag5
ag5
ag5
ag5
ag5
ag5
ag5
ag5
ag5
ag5
ag5
ag5
ag5
ag5
ag5
ag5
ag5
ag5
ag5
ag5
ag5
ag5
ag5
ag5
ag5
ag5
ag5
ag5
ag5
ag5
ag5
ag5
ag5
ag5
ag5
ag5
ag5
ag5
ag5
ag5
ag5
ag5
ag5
ag5
ag5
ag5
ag5
ag5
ag5
ag5
ag5
ag5
ag5
ag5
ag5
ag5
ag5
ag5
ag5
ag5
ag5
ag5
ag5
ag5
ag5
ag5
ag5
ag5
ag5
ag5
ag5
ag5
ag5
ag5
ag5
ag5
ag5
ag5
ag5
ag5
ag5
ag5
ag5
ag5
ag5
ag5
ag5
ag5
ag5
ag5
ag5
ag5
ag5
ag5
ag5
ag5
ag5
ag5
ag5
ag5
ag5
ag5
ag5
ag5
ag5
ag5
ag5
ag5
ag5
ag5
ag5
ag5
ag5
ag5
ag5
ag5
ag5
ag5
ag5
ag5
ag5
ag5
ag5
ag5
ag5
ag5
ag5
ag5
ag5
ag5
ag5
ag5
ag5
ag5
ag5
ag5
ag5
ag5
ag5
ag5
ag5
ag5
ag5
ag5
ag5
ag5
ag5
ag5
ag5
ag5
ag5
ag5
ag5
ag5
ag5
ag5
ag5
ag5
ag5
ag5
ag5
ag5
ag5
ag5
ag5
ag5
ag5
ag5
ag5
ag5
ag5
ag5
ag5
ag5
ag5
ag5
ag5
ag5
ag5
ag5
ag5
ag5
ag5
ag5
ag5
ag5
ag5
ag5
ag5
ag5
ag5
ag5
ag5
ag5
ag5
ag5
ag5
ag5
ag5
ag5
ag5
ag5
ag5
ag5
ag5
ag5
ag5
ag5
ag5
ag5
ag5
ag5
ag5
ag5
ag5
ag5
ag5
ag5
ag5
ag5
ag5
ag5
ag5
ag5
ag5
ag5
ag5
ag5
ag5
ag5
ag5
ag5
ag5
ag5
ag5
ag5
ag5
ag5
ag5
ag5
ag5
ag5
ag5
ag5
ag5
ag5
ag5
ag5
ag5
ag5
ag5
ag5
ag5
ag5
ag5
ag5
ag5
ag5
ag5
ag5
ag5
ag5
ag5
ag5
ag5
ag5
ag5
ag5
ag5
ag5
ag5
ag5
ag5
ag5
ag5
ag5
ag5
ag5
ag5
ag5
ag5
ag5
ag5
ag5
ag5
ag5
ag5
ag5
ag5
ag5
ag5
ag5
ag5
ag5
ag5
ag5
ag5
ag5
ag5
ag5
ag5
ag5
ag5
ag5
ag5
ag5
ag5
ag5
ag5
ag5
ag5
ag5
ag5
ag5
ag5
ag5
ag5
ag5
ag5
ag5
ag5
ag5
ag5
ag5
ag5
ag5
ag5
ag5
ag5
ag5
ag5
ag5
ag5
ag5
ag5
ag5
ag5
ag5
ag5
ag5
ag5
ag5
ag5
ag5
ag5
ag5
ag5
ag5
ag5
ag5
ag5
ag5
ag5
ag5
ag5
ag5
ag5
ag5
ag5
ag5
ag5
ag5
ag5
ag5
ag5
ag5
ag5
ag5
ag5
ag5
ag5
ag5
ag5
ag5
ag5
ag5
ag5
ag5
ag5
ag5
ag5
ag5
ag5
ag5
ag5
ag5
ag5
ag5
ag5
ag5
ag5
ag5
ag5
ag5
ag5
ag5
ag5
ag5
ag5
ag5
ag5
ag5
ag5
ag5
ag5
ag5
ag5
ag5
ag5
ag5
ag5
ag5
ag5
ag5
ag5
ag5
ag5
ag5
ag5
ag5
ag5
ag5
ag5
ag5
ag5
ag5
ag5
ag5
ag5
ag5
ag5
ag5
ag5
ag5
ag5
ag5
ag5
ag5
ag5
ag5
ag5
ag5
ag5
ag5
ag5
ag5
ag5
ag5
ag5
ag5
ag5
ag5
ag5
ag5
ag5
ag5
ag5
ag5
ag5
ag5
ag5
ag5
ag5
ag5
ag5
ag5
ag5
ag5
ag5
ag5
ag5
ag5
ag5
ag5
ag5
ag5
ag5
ag5
ag5
ag5
ag5
ag5
ag5
ag5
ag5
ag5
ag5
ag5
ag5
ag5
ag5
ag5
ag5
ag5
ag5
ag5
ag5
ag5
ag5
ag5
ag5
ag5
ag5
ag5
ag5
ag5
ag5
ag5
ag5
ag5
ag5
ag5
ag5
ag5
ag5
ag5
ag5
ag5
ag5
ag5
ag5
ag5
ag5
ag5
ag5
ag5
ag5
ag5
ag5
ag5
ag5
ag5
ag5
ag5
ag5
ag5
ag5
ag5
ag5
ag5
ag5
ag5
ag5
ag5
ag5
ag5
ag5
ag5
ag5
ag5
ag5
ag5
ag5
ag5
ag5
ag5
ag5
ag5
ag5
ag5
ag5
ag5
ag5
ag5
ag5
ag5
ag5
ag5
ag5
ag5
ag5
ag5
ag5
ag5
ag5
ag5
ag5
ag5
ag5
ag5
ag5
ag5
ag5
ag5
ag5
ag5
ag5
ag5
ag5
ag5
ag5
ag5
ag5
ag5
ag5
ag5
ag5
ag5
ag5
ag5
ag5
ag5
ag5
ag5
ag5
ag5
ag5
ag5
ag5
ag5
ag5
ag5
ag5
ag5
ag5
ag5
ag5
ag5
ag5
ag5
ag5
ag5
ag5
ag5
ag5
ag5
ag5
ag5
ag5
ag5
ag5
ag5
ag5
ag5
ag5
ag5
ag5
ag5
ag5
ag5
ag5
ag5
ag5
ag5
ag5
ag5
ag5
ag5
ag5
ag5
ag5
ag5
ag5
ag5
ag5
ag5
ag5
ag5
ag5
ag5
ag5
ag5
ag5
ag5
ag5
ag5
ag5
ag5
ag5
ag5
ag5
ag5
ag5
ag5
ag5
ag5
ag5
ag5
ag5
ag5
ag5
ag5
ag5
ag5
ag5
ag5
ag5
ag5
ag5
ag5
ag5
ag5
ag5
ag5
ag5
ag5
ag5
ag5
ag5
ag5
ag5
ag5
ag5
ag5
ag5
ag5
ag5
ag5
ag5
ag5
ag5
ag5
ag5
ag5
ag5
ag5
ag5
ag5
ag5
ag5
ag5
ag5
ag5
ag5
ag5
ag5
ag5
ag5
ag5
ag5
ag5
ag5
ag5
ag5
ag5
ag5
ag5
ag5
ag5
ag5
ag5
ag5
ag5
ag5
ag5
ag5
ag5
ag5
ag5
ag5
ag5
ag5
ag5
ag5
ag5
ag5
ag5
ag5
ag5
ag5
ag5
ag5
ag5
ag5
ag5
ag5
ag5
ag5
ag5
ag5
ag5
ag5
ag5
ag5
ag5
ag5
ag5
ag5
ag5
ag5
ag5
ag5
ag5
ag5
ag5
ag5
ag5
ag5
ag5
ag5
ag5
ag5
ag5
ag5
ag5
ag5
ag5
ag5
ag5
ag5
asS'lenq'
p149
(lp150
I1
aI2
aI3
aI4
aI5
aI6
aI6
aI7
aI8
aI9
aI10
aI11
aI11
aI11
aI11
aI11
aI11
aI11
aI11
aI11
aI11
aI12
aI13
aI13
aI14
aI14
aI14
aI14
aI14
aI14
aI14
aI14
aI14
aI14
aI14
aI14
aI15
aI15
aI16
aI16
aI16
aI17
aI17
aI17
aI17
aI17
aI17
aI17
aI17
aI17
aI17
aI17
aI17
aI17
aI17
aI17
aI17
aI17
aI17
aI17
aI17
aI17
aI17
aI17
aI17
aI17
aI17
aI17
aI17
aI17
aI17
aI17
aI17
aI17
aI17
aI17
aI17
aI17
aI17
aI17
aI17
aI17
aI17
aI17
aI17
aI17
aI17
aI17
aI17
aI17
aI17
aI17
aI17
aI18
aI19
aI19
aI19
aI19
aI19
aI19
aI19
aI19
aI19
aI19
aI19
aI19
aI19
aI19
aI19
aI19
aI19
aI19
aI19
aI19
aI19
aI19
aI19
aI19
aI19
aI19
aI19
aI19
aI20
aI20
aI20
aI20
aI20
aI20
aI20
aI20
aI20
aI20
aI20
aI20
aI20
aI20
aI21
aI22
aI23
aI24
aI24
aI24
aI24
aI24
aI24
aI24
aI24
aI24
aI24
aI24
aI24
aI24
aI24
aI24
aI24
aI24
aI24
aI25
aI25
aI26
aI26
aI26
aI26
aI26
aI27
aI28
aI28
aI28
aI28
aI28
aI28
aI28
aI28
aI29
aI29
aI29
aI29
aI29
aI29
aI29
aI29
aI29
aI29
aI29
aI29
aI29
aI29
aI29
aI29
aI29
aI29
aI29
aI29
aI29
aI29
aI29
aI29
aI29
aI29
aI29
aI29
aI29
aI29
aI29
aI29
aI29
aI29
aI30
aI30
aI30
aI30
aI30
aI30
aI30
aI30
aI30
aI30
aI30
aI30
aI30
aI30
aI30
aI30
aI30
aI30
aI30
aI30
aI30
aI30
aI30
aI31
aI32
aI33
aI33
aI33
aI33
aI33
aI33
aI33
aI33
aI33
aI33
aI33
aI34
aI34
aI34
aI34
aI34
aI34
aI34
aI34
aI34
aI34
aI34
aI34
aI34
aI34
aI34
aI34
aI34
aI34
aI34
aI34
aI34
aI34
aI34
aI34
aI34
aI34
aI34
aI34
aI34
aI34
aI34
aI34
aI34
aI34
aI34
aI34
aI34
aI34
aI34
aI34
aI34
aI34
aI34
aI34
aI34
aI34
aI34
aI34
aI34
aI34
aI34
aI34
aI34
aI34
aI35
aI35
aI35
aI35
aI35
aI35
aI35
aI35
aI35
aI35
aI35
aI35
aI35
aI35
aI35
aI35
aI35
aI35
aI35
aI35
aI35
aI35
aI35
aI35
aI35
aI35
aI35
aI35
aI35
aI35
aI35
aI35
aI35
aI35
aI35
aI35
aI35
aI35
aI35
aI35
aI36
aI36
aI36
aI36
aI36
aI37
aI37
aI37
aI37
aI37
aI37
aI37
aI37
aI37
aI37
aI37
aI37
aI37
aI37
aI37
aI37
aI37
aI37
aI37
aI37
aI37
aI37
aI37
aI37
aI37
aI37
aI37
aI37
aI37
aI37
aI37
aI37
aI37
aI37
aI37
aI37
aI37
aI37
aI37
aI37
aI37
aI37
aI37
aI37
aI37
aI37
aI37
aI37
aI37
aI37
aI38
aI38
aI38
aI38
aI38
aI38
aI38
aI39
aI39
aI39
aI39
aI39
aI39
aI39
aI39
aI39
aI39
aI39
aI39
aI39
aI39
aI39
aI40
aI40
aI40
aI40
aI40
aI40
aI40
aI40
aI40
aI40
aI40
aI40
aI40
aI40
aI40
aI41
aI41
aI41
aI41
aI41
aI41
aI41
aI41
aI41
aI41
aI41
aI42
aI42
aI42
aI42
aI42
aI42
aI42
aI42
aI42
aI42
aI42
aI42
aI42
aI42
aI42
aI43
aI43
aI43
aI43
aI43
aI43
aI43
aI43
aI43
aI43
aI43
aI43
aI43
aI43
aI43
aI43
aI43
aI43
aI43
aI43
aI43
aI43
aI43
aI44
aI44
aI44
aI44
aI44
aI44
aI44
aI44
aI44
aI44
aI44
aI44
aI44
aI44
aI44
aI44
aI44
aI44
aI44
aI44
aI44
aI44
aI44
aI44
aI44
aI44
aI44
aI44
aI44
aI44
aI44
aI44
aI44
aI44
aI44
aI44
aI44
aI44
aI44
aI44
aI44
aI44
aI44
aI45
aI45
aI45
aI45
aI45
aI45
aI45
aI45
aI45
aI45
aI45
aI45
aI45
aI45
aI45
aI45
aI45
aI45
aI45
aI45
aI45
aI45
aI45
aI45
aI45
aI46
aI46
aI46
aI46
aI46
aI46
aI46
aI46
aI46
aI46
aI46
aI46
aI46
aI46
aI46
aI46
aI46
aI46
aI46
aI46
aI46
aI46
aI46
aI46
aI46
aI46
aI46
aI46
aI46
aI46
aI47
aI47
aI47
aI48
aI48
aI48
aI48
aI48
aI48
aI48
aI48
aI48
aI48
aI48
aI48
aI48
aI48
aI48
aI48
aI48
aI48
aI48
aI48
aI48
aI48
aI48
aI48
aI48
aI48
aI48
aI48
aI48
aI49
aI49
aI49
aI49
aI49
aI49
aI49
aI49
aI49
aI49
aI49
aI49
aI49
aI49
aI49
aI49
aI49
aI49
aI49
aI49
aI49
aI49
aI49
aI49
aI49
aI49
aI49
aI49
aI49
aI49
aI49
aI49
aI49
aI49
aI49
aI49
aI49
aI49
aI49
aI49
aI49
aI49
aI49
aI49
aI49
aI49
aI49
aI49
aI49
aI49
aI49
aI49
aI49
aI49
aI49
aI49
aI49
aI49
aI49
aI49
aI49
aI49
aI49
aI50
aI51
aI51
aI51
aI51
aI52
aI52
aI52
aI52
aI52
aI52
aI52
aI52
aI52
aI52
aI52
aI52
aI52
aI52
aI52
aI52
aI52
aI52
aI52
aI52
aI52
aI53
aI53
aI53
aI53
aI53
aI53
aI53
aI53
aI53
aI53
aI53
aI53
aI53
aI54
aI54
aI54
aI54
aI54
aI54
aI54
aI54
aI54
aI54
aI54
aI54
aI54
aI54
aI54
aI54
aI54
aI54
aI54
aI54
aI54
aI54
aI54
aI54
aI54
aI54
aI54
aI54
aI54
aI54
aI54
aI54
aI54
aI54
aI54
aI54
aI54
aI54
aI54
aI54
aI54
aI54
aI54
aI54
aI54
aI54
aI54
aI54
aI54
aI54
aI54
aI54
aI54
aI54
aI54
aI54
aI54
aI54
aI54
aI54
aI54
aI54
aI54
aI54
aI54
aI54
aI54
aI54
aI54
aI54
aI54
aI54
aI54
aI54
aI54
aI54
aI54
aI54
aI54
aI54
aI54
aI54
aI54
aI54
aI54
aI54
aI54
aI54
aI54
aI54
aI54
aI54
aI54
aI54
aI54
aI54
aI54
aI54
aI54
aI54
aI54
aI54
aI54
aI54
aI54
aI54
aI54
aI54
aI54
aI54
aI54
aI54
aI55
aI55
aI55
aI55
aI55
aI55
aI55
aI55
aI55
aI56
aI56
aI56
aI56
aI56
aI56
aI56
aI56
aI57
aI57
aI57
aI57
aI57
aI57
aI57
aI58
aI58
aI58
aI58
aI58
aI58
aI58
aI58
aI58
aI58
aI58
aI58
aI58
aI58
aI58
aI58
aI58
aI58
aI58
aI58
aI58
aI58
aI58
aI58
aI58
aI58
aI58
aI58
aI58
aI58
aI58
aI58
aI58
aI58
aI58
aI58
aI58
aI58
aI58
aI59
aI60
aI60
aI60
aI60
aI60
aI60
aI60
aI60
aI60
aI60
aI60
aI60
aI60
aI60
aI60
aI60
aI60
aI60
aI60
aI60
aI60
aI60
aI60
aI60
aI60
aI60
aI60
aI60
aI60
aI60
aI60
aI60
aI60
aI60
aI60
aI60
aI60
aI60
aI60
aI60
aI60
aI60
aI60
aI60
aI60
aI60
aI60
aI60
aI60
aI60
aI60
aI60
aI60
aI60
aI60
aI60
aI60
aI60
aI60
aI60
aI60
aI60
aI60
aI60
aI60
aI60
aI61
aI61
aI61
aI61
aI61
aI61
aI61
aI61
aI61
aI61
aI61
aI61
aI61
aI61
aI61
aI61
aI61
aI62
aI62
aI62
aI62
aI62
aI62
aI62
aI62
aI62
aI62
aI62
aI62
aI62
aI62
aI62
aI62
aI62
aI62
aI62
aI62
aI62
aI62
aI62
aI62
aI62
aI62
aI62
aI63
aI63
aI63
aI63
aI63
aI63
aI63
aI63
aI63
aI63
aI63
aI63
aI63
aI63
aI63
aI63
aI63
aI63
aI63
aI63
aI63
aI63
aI63
aI63
aI63
aI63
aI63
aI63
aI63
aI63
aI63
aI63
aI63
aI63
aI63
aI63
aI63
aI63
aI63
aI63
aI63
aI63
aI63
aI63
aI63
aI63
aI63
aI63
aI63
aI63
aI63
aI63
aI63
aI63
aI63
aI63
aI64
aI65
aI65
aI65
aI65
aI65
aI65
aI65
aI65
aI65
aI65
aI65
aI65
aI65
aI65
aI65
aI65
aI65
aI65
aI65
aI65
aI65
aI65
aI65
aI65
aI66
aI66
aI66
aI66
aI66
aI66
aI66
aI66
aI66
aI66
aI66
aI66
aI66
aI66
aI66
aI66
aI66
aI66
aI66
aI66
aI66
aI66
aI66
aI66
aI66
aI66
aI66
aI66
aI66
aI66
aI67
aI67
aI67
aI67
aI67
aI67
aI67
aI67
aI67
aI67
aI68
aI68
aI68
aI69
aI69
aI69
aI69
aI69
aI69
aI69
aI69
aI69
aI69
aI69
aI69
aI69
aI69
aI69
aI69
aI69
aI69
aI69
aI69
aI69
aI69
aI69
aI69
aI69
aI69
aI69
aI69
aI69
aI69
aI69
aI69
aI69
aI69
aI69
aI69
aI69
aI69
aI69
aI69
aI69
aI69
aI69
aI69
aI69
aI69
aI69
aI69
aI69
aI69
aI69
aI69
aI69
aI69
aI69
aI69
aI69
aI69
aI69
aI69
aI69
aI69
aI69
aI69
aI69
aI69
aI69
aI69
aI69
aI69
aI69
aI69
aI69
aI69
aI69
aI69
aI69
aI69
aI69
aI69
aI69
aI69
aI69
aI69
aI69
aI69
aI69
aI69
aI69
aI69
aI69
aI69
aI69
aI69
aI69
aI69
aI69
aI69
aI69
aI69
aI69
aI69
aI69
aI69
aI69
aI69
aI69
aI69
aI69
aI69
aI69
aI69
aI69
aI69
aI69
aI69
aI69
aI69
as.